(dp1
S'output'
p2
S"<class 'sqlite3.IntegrityError'> FOREIGN KEY constraint failed"
p3
sS'layer'
p4
S'/Users/Sri/Documents/Showcase/applications/KennethPush2/controllers/default.py'
p5
sS'code'
p6
S'def call():\n    """exposes all registered services, including XML-RPC"""\n    return service()\n\ndef profile():\n    projects = get_projects()\n    last_project = projects.first()\n    project_count = len(projects)\n    \n    print "project_count: %s" % project_count\n    \n    return dict(projects=projects, last_project=last_project,project_count = project_count)\n\n\ndef feed():\n    feed = db(db.document).select(orderby=~db.document.created_on)\n    comments = db(db.post).select(orderby=~db.post.created_on)\n    form = SQLFORM(db.post)\n    return dict(feed=feed, comments=comments, form=form)\n    """feed = db(db.project).select(orderby=~db.project.created_on, limitby=(0, 10))\n    return dict(feed=feed)"""\n\n#shows projects\ndef index1():\n    projects = get_projects\n    #return dict(people=people)\n    projects = db().select(db.project.id, db.project.title, orderby=db.project.title)\n    return dict(projects=projects)\n\n#make smartgrid show users and link projects\ndef index():\n    default_sort_order = [db.project.id]\n    fields = (db.project.title,  db.auth_user.first_name)\n    headers = {\n        \'project.title\': \'Title\',\n        \' db.auth_user.first_name\': \'Body\'\n    }\n\n\n    grid = SQLFORM.grid(db.project,\n                        fields=fields,\n                        headers=headers,\n                        orderby=default_sort_order,\n                        create=False,\n                        deletable=False,\n                        editable=False,\n                        details=False,\n                        links = [lambda row: A(\'View Post\',_href=URL("default","show",args=[row.id]))],\n                        paginate=50)\n    return dict(grid=grid)\n\n\ndef get_projects():\n    """get posts, in reverse chronological order"""\n    return db(db.project).select().sort(lambda p: p.updated_on, reverse=True)\n#create a new person\n#def createPerson():\n#form = SQLFORM(db.person).process(next=URL(\'index\'))\n#return dict(form=form)\n\n#create a project\ndef createProject():\n    form = SQLFORM(db.project).process(next=URL(\'projects\'))\n    return dict(form=form)\n\ndef projects():\n    this_project = db.project(request.args(0, cast=int))\n    projects = db().select(db.project.id, db.project.title, orderby=db.project.title)\n    return dict(project=this_project, projects=projects)\n\n#this_project = db.project(request.args(0, cast=int)) or redirect(URL(\'index\'))\n#db.post.project_id.default = this_project.id\n#projects = db().select(db.project.id, db.project.title, orderby=db.project.title)\n#return dict(projects=projects)\n\n#show the project and comments\ndef show():\n    comments = db(db.post).select(orderby=~db.post.created_on)\n    this_project = db.project(request.args(0, cast=int)) or redirect(URL(\'index\'))\n    db.document.project_id.default = this_project.id\n    form = SQLFORM(db.document)#.process() #if auth.user else None\n    if form.process(keepvalues=True).accepted:\n       response.flash = \'post accepted\'\n    elif form.errors:\n       response.flash = \'please complete your post\'\n    projectposts = db(db.document.project_id == this_project.id).select()\n    return dict(project=this_project, posts=projectposts, comments=comments, form=form)\n    """this_project = db.project(request.args(0, cast=int)) or redirect(URL(\'index\'))\n    db.post.project_id.default = this_project.id\n    form = SQLFORM(db.post).process() if auth.user else None\n    projectcomments = db(db.post.project_id == this_project.id).select()\n    return dict(project=this_project, comments=projectcomments, form=form)"""\n\n@auth.requires_login()\ndef edit():\n    this_project = db.project(request.args(0, cast=int)) or redirect(URL(\'index\'))\n    form = SQLFORM(db.project, this_project).process(\n                                                     next = URL(\'show\', args=request.args))\n    return dict(form=form)\n\n@auth.requires_login()\ndef documents():\n    project = db.project(request.args(0, cast=int)) or redirect(URL(\'index\'))\n    db.document.project_id.default = project.id\n    db.document.project_id.writable = False\n    grid = SQLFORM.grid(db.document.project_id == project.id, args=[project.id])\n    return dict(project=project, grid=grid)\n\ndef user():\n    return dict(form=auth())\n\n#can download docs\ndef download():\n    return response.download(request, db)\n\nresponse._vars=response._caller(createProject)\n'
p7
sS'snapshot'
p8
(dp9
S'exception'
p10
(dp11
S'__module__'
p12
S"'sqlite3'"
p13
sS'__getslice__'
p14
S"<method-wrapper '__getslice__' of IntegrityError object>"
p15
sS'__str__'
p16
S"<method-wrapper '__str__' of IntegrityError object>"
p17
sS'__reduce__'
p18
S'<built-in method __reduce__ of IntegrityError object>'
p19
sS'__dict__'
p20
S'{}'
p21
sS'__sizeof__'
p22
S'<built-in method __sizeof__ of IntegrityError object>'
p23
sS'__weakref__'
p24
S'None'
p25
sS'__init__'
p26
S"<method-wrapper '__init__' of IntegrityError object>"
p27
sS'__setattr__'
p28
S"<method-wrapper '__setattr__' of IntegrityError object>"
p29
sS'__reduce_ex__'
p30
S'<built-in method __reduce_ex__ of IntegrityError object>'
p31
sS'__new__'
p32
S'<built-in method __new__ of type object>'
p33
sS'__format__'
p34
S'<built-in method __format__ of IntegrityError object>'
p35
sS'__class__'
p36
S"<class 'sqlite3.IntegrityError'>"
p37
sS'__doc__'
p38
S'None'
p39
sS'__getitem__'
p40
S"<method-wrapper '__getitem__' of IntegrityError object>"
p41
sS'__setstate__'
p42
S'<built-in method __setstate__ of IntegrityError object>'
p43
sS'__getattribute__'
p44
S"<method-wrapper '__getattribute__' of IntegrityError object>"
p45
sS'args'
p46
S"('FOREIGN KEY constraint failed',)"
p47
sS'__subclasshook__'
p48
S'<built-in method __subclasshook__ of type object>'
p49
sS'__unicode__'
p50
S'<built-in method __unicode__ of IntegrityError object>'
p51
sS'__delattr__'
p52
S"<method-wrapper '__delattr__' of IntegrityError object>"
p53
sS'__repr__'
p54
S"<method-wrapper '__repr__' of IntegrityError object>"
p55
sS'__hash__'
p56
S"<method-wrapper '__hash__' of IntegrityError object>"
p57
ssS'evalue'
p58
S'FOREIGN KEY constraint failed'
p59
sS'request'
p60
cgluon.html
XML_unpickle
p61
(S'sn\x9f\x00\x00<div><table><tr><td style="font-weight:bold;vertical-align:top;">ajax</td><td style="vertical-align:top;">:</td><td><div>False</div></td></tr><tr><td style="font-weight:bold;vertical-align:top;">application</td><td style="vertical-align:top;">:</td><td><div>KennethPush2</div></td></tr><tr><td style="font-weight:bold;vertical-align:top;">args</td><td style="vertical-align:top;">:</td><td><div><table></table></div></td></tr><tr><td style="font-weight:bold;vertical-align:top;">cid</td><td style="vertical-align:top;">:</td><td><div>None</div></td></tr><tr><td style="font-weight:bold;vertical-align:top;">client</td><td style="vertical-align:top;">:</td><td><div>127.0.0.1</div></td></tr><tr><td style="font-weight:bold;vertical-align:top;">controller</td><td style="vertical-align:top;">:</td><td><div>default</div></td></tr><tr><td style="font-weight:bold;vertical-align:top;">cookies</td><td style="vertical-align:top;">:</td><td><div><table><tr><td style="font-weight:bold;vertical-align:top;">session_id_admin</td><td style="vertical-align:top;">:</td><td><div>127.0.0.1-d00e89f2-0b29-46db-b258-1fe9c1c19363<table><tr><td style="font-weight:bold;vertical-align:top;">comment</td><td style="vertical-align:top;">:</td><td><div></div></td></tr><tr><td style="font-weight:bold;vertical-align:top;">domain</td><td style="vertical-align:top;">:</td><td><div></div></td></tr><tr><td style="font-weight:bold;vertical-align:top;">expires</td><td style="vertical-align:top;">:</td><td><div></div></td></tr><tr><td style="font-weight:bold;vertical-align:top;">httponly</td><td style="vertical-align:top;">:</td><td><div></div></td></tr><tr><td style="font-weight:bold;vertical-align:top;">max-age</td><td style="vertical-align:top;">:</td><td><div></div></td></tr><tr><td style="font-weight:bold;vertical-align:top;">path</td><td style="vertical-align:top;">:</td><td><div></div></td></tr><tr><td style="font-weight:bold;vertical-align:top;">secure</td><td style="vertical-align:top;">:</td><td><div></div></td></tr><tr><td style="font-weight:bold;vertical-align:top;">version</td><td style="vertical-align:top;">:</td><td><div></div></td></tr></table></div></td></tr><tr><td style="font-weight:bold;vertical-align:top;">session_id_ajaxtest</td><td style="vertical-align:top;">:</td><td><div>127.0.0.1-4acfa954-ffac-481f-8844-40297074a5c6<table><tr><td style="font-weight:bold;vertical-align:top;">comment</td><td style="vertical-align:top;">:</td><td><div></div></td></tr><tr><td style="font-weight:bold;vertical-align:top;">domain</td><td style="vertical-align:top;">:</td><td><div></div></td></tr><tr><td style="font-weight:bold;vertical-align:top;">expires</td><td style="vertical-align:top;">:</td><td><div></div></td></tr><tr><td style="font-weight:bold;vertical-align:top;">httponly</td><td style="vertical-align:top;">:</td><td><div></div></td></tr><tr><td style="font-weight:bold;vertical-align:top;">max-age</td><td style="vertical-align:top;">:</td><td><div></div></td></tr><tr><td style="font-weight:bold;vertical-align:top;">path</td><td style="vertical-align:top;">:</td><td><div></div></td></tr><tr><td style="font-weight:bold;vertical-align:top;">secure</td><td style="vertical-align:top;">:</td><td><div></div></td></tr><tr><td style="font-weight:bold;vertical-align:top;">version</td><td style="vertical-align:top;">:</td><td><div></div></td></tr></table></div></td></tr><tr><td style="font-weight:bold;vertical-align:top;">session_id_authtest</td><td style="vertical-align:top;">:</td><td><div>127.0.0.1-e4d5562f-14cd-4472-93c9-c4d5d3aa0a13<table><tr><td style="font-weight:bold;vertical-align:top;">comment</td><td style="vertical-align:top;">:</td><td><div></div></td></tr><tr><td style="font-weight:bold;vertical-align:top;">domain</td><td style="vertical-align:top;">:</td><td><div></div></td></tr><tr><td style="font-weight:bold;vertical-align:top;">expires</td><td style="vertical-align:top;">:</td><td><div></div></td></tr><tr><td style="font-weight:bold;vertical-align:top;">httponly</td><td style="vertical-align:top;">:</td><td><div></div></td></tr><tr><td style="font-weight:bold;vertical-align:top;">max-age</td><td style="vertical-align:top;">:</td><td><div></div></td></tr><tr><td style="font-weight:bold;vertical-align:top;">path</td><td style="vertical-align:top;">:</td><td><div></div></td></tr><tr><td style="font-weight:bold;vertical-align:top;">secure</td><td style="vertical-align:top;">:</td><td><div></div></td></tr><tr><td style="font-weight:bold;vertical-align:top;">version</td><td style="vertical-align:top;">:</td><td><div></div></td></tr></table></div></td></tr><tr><td style="font-weight:bold;vertical-align:top;">session_id_eron</td><td style="vertical-align:top;">:</td><td><div>127.0.0.1-8d1e1010-9d99-4f3e-b3d1-c77b029f1fa4<table><tr><td style="font-weight:bold;vertical-align:top;">comment</td><td style="vertical-align:top;">:</td><td><div></div></td></tr><tr><td style="font-weight:bold;vertical-align:top;">domain</td><td style="vertical-align:top;">:</td><td><div></div></td></tr><tr><td style="font-weight:bold;vertical-align:top;">expires</td><td style="vertical-align:top;">:</td><td><div></div></td></tr><tr><td style="font-weight:bold;vertical-align:top;">httponly</td><td style="vertical-align:top;">:</td><td><div></div></td></tr><tr><td style="font-weight:bold;vertical-align:top;">max-age</td><td style="vertical-align:top;">:</td><td><div></div></td></tr><tr><td style="font-weight:bold;vertical-align:top;">path</td><td style="vertical-align:top;">:</td><td><div></div></td></tr><tr><td style="font-weight:bold;vertical-align:top;">secure</td><td style="vertical-align:top;">:</td><td><div></div></td></tr><tr><td style="font-weight:bold;vertical-align:top;">version</td><td style="vertical-align:top;">:</td><td><div></div></td></tr></table></div></td></tr><tr><td style="font-weight:bold;vertical-align:top;">session_id_forsalehw2</td><td style="vertical-align:top;">:</td><td><div>127.0.0.1-25af8bfd-3f1c-44a3-8ffc-e787ef4030d9<table><tr><td style="font-weight:bold;vertical-align:top;">comment</td><td style="vertical-align:top;">:</td><td><div></div></td></tr><tr><td style="font-weight:bold;vertical-align:top;">domain</td><td style="vertical-align:top;">:</td><td><div></div></td></tr><tr><td style="font-weight:bold;vertical-align:top;">expires</td><td style="vertical-align:top;">:</td><td><div></div></td></tr><tr><td style="font-weight:bold;vertical-align:top;">httponly</td><td style="vertical-align:top;">:</td><td><div></div></td></tr><tr><td style="font-weight:bold;vertical-align:top;">max-age</td><td style="vertical-align:top;">:</td><td><div></div></td></tr><tr><td style="font-weight:bold;vertical-align:top;">path</td><td style="vertical-align:top;">:</td><td><div></div></td></tr><tr><td style="font-weight:bold;vertical-align:top;">secure</td><td style="vertical-align:top;">:</td><td><div></div></td></tr><tr><td style="font-weight:bold;vertical-align:top;">version</td><td style="vertical-align:top;">:</td><td><div></div></td></tr></table></div></td></tr><tr><td style="font-weight:bold;vertical-align:top;">session_id_kennethpush2</td><td style="vertical-align:top;">:</td><td><div>127.0.0.1-9b9b25e9-9288-4bca-b82a-8e3d9cd64f74<table><tr><td style="font-weight:bold;vertical-align:top;">comment</td><td style="vertical-align:top;">:</td><td><div></div></td></tr><tr><td style="font-weight:bold;vertical-align:top;">domain</td><td style="vertical-align:top;">:</td><td><div></div></td></tr><tr><td style="font-weight:bold;vertical-align:top;">expires</td><td style="vertical-align:top;">:</td><td><div></div></td></tr><tr><td style="font-weight:bold;vertical-align:top;">httponly</td><td style="vertical-align:top;">:</td><td><div></div></td></tr><tr><td style="font-weight:bold;vertical-align:top;">max-age</td><td style="vertical-align:top;">:</td><td><div></div></td></tr><tr><td style="font-weight:bold;vertical-align:top;">path</td><td style="vertical-align:top;">:</td><td><div></div></td></tr><tr><td style="font-weight:bold;vertical-align:top;">secure</td><td style="vertical-align:top;">:</td><td><div></div></td></tr><tr><td style="font-weight:bold;vertical-align:top;">version</td><td style="vertical-align:top;">:</td><td><div></div></td></tr></table></div></td></tr><tr><td style="font-weight:bold;vertical-align:top;">session_id_myapp</td><td style="vertical-align:top;">:</td><td><div>127.0.0.1-67a36db7-ffb0-494b-8942-14176350b74e<table><tr><td style="font-weight:bold;vertical-align:top;">comment</td><td style="vertical-align:top;">:</td><td><div></div></td></tr><tr><td style="font-weight:bold;vertical-align:top;">domain</td><td style="vertical-align:top;">:</td><td><div></div></td></tr><tr><td style="font-weight:bold;vertical-align:top;">expires</td><td style="vertical-align:top;">:</td><td><div></div></td></tr><tr><td style="font-weight:bold;vertical-align:top;">httponly</td><td style="vertical-align:top;">:</td><td><div></div></td></tr><tr><td style="font-weight:bold;vertical-align:top;">max-age</td><td style="vertical-align:top;">:</td><td><div></div></td></tr><tr><td style="font-weight:bold;vertical-align:top;">path</td><td style="vertical-align:top;">:</td><td><div></div></td></tr><tr><td style="font-weight:bold;vertical-align:top;">secure</td><td style="vertical-align:top;">:</td><td><div></div></td></tr><tr><td style="font-weight:bold;vertical-align:top;">version</td><td style="vertical-align:top;">:</td><td><div></div></td></tr></table></div></td></tr><tr><td style="font-weight:bold;vertical-align:top;">session_id_sprint1</td><td style="vertical-align:top;">:</td><td><div>127.0.0.1-aa1ed8c2-b6ee-402c-b9db-e5e6c9df1ec4<table><tr><td style="font-weight:bold;vertical-align:top;">comment</td><td style="vertical-align:top;">:</td><td><div></div></td></tr><tr><td style="font-weight:bold;vertical-align:top;">domain</td><td style="vertical-align:top;">:</td><td><div></div></td></tr><tr><td style="font-weight:bold;vertical-align:top;">expires</td><td style="vertical-align:top;">:</td><td><div></div></td></tr><tr><td style="font-weight:bold;vertical-align:top;">httponly</td><td style="vertical-align:top;">:</td><td><div></div></td></tr><tr><td style="font-weight:bold;vertical-align:top;">max-age</td><td style="vertical-align:top;">:</td><td><div></div></td></tr><tr><td style="font-weight:bold;vertical-align:top;">path</td><td style="vertical-align:top;">:</td><td><div></div></td></tr><tr><td style="font-weight:bold;vertical-align:top;">secure</td><td style="vertical-align:top;">:</td><td><div></div></td></tr><tr><td style="font-weight:bold;vertical-align:top;">version</td><td style="vertical-align:top;">:</td><td><div></div></td></tr></table></div></td></tr><tr><td style="font-weight:bold;vertical-align:top;">session_id_style</td><td style="vertical-align:top;">:</td><td><div>127.0.0.1-fe03a2f0-65ee-4552-a209-0478a0323359<table><tr><td style="font-weight:bold;vertical-align:top;">comment</td><td style="vertical-align:top;">:</td><td><div></div></td></tr><tr><td style="font-weight:bold;vertical-align:top;">domain</td><td style="vertical-align:top;">:</td><td><div></div></td></tr><tr><td style="font-weight:bold;vertical-align:top;">expires</td><td style="vertical-align:top;">:</td><td><div></div></td></tr><tr><td style="font-weight:bold;vertical-align:top;">httponly</td><td style="vertical-align:top;">:</td><td><div></div></td></tr><tr><td style="font-weight:bold;vertical-align:top;">max-age</td><td style="vertical-align:top;">:</td><td><div></div></td></tr><tr><td style="font-weight:bold;vertical-align:top;">path</td><td style="vertical-align:top;">:</td><td><div></div></td></tr><tr><td style="font-weight:bold;vertical-align:top;">secure</td><td style="vertical-align:top;">:</td><td><div></div></td></tr><tr><td style="font-weight:bold;vertical-align:top;">version</td><td style="vertical-align:top;">:</td><td><div></div></td></tr></table></div></td></tr><tr><td style="font-weight:bold;vertical-align:top;">session_id_sub1</td><td style="vertical-align:top;">:</td><td><div>127.0.0.1-40e1a078-b7bc-4646-87df-84944233080a<table><tr><td style="font-weight:bold;vertical-align:top;">comment</td><td style="vertical-align:top;">:</td><td><div></div></td></tr><tr><td style="font-weight:bold;vertical-align:top;">domain</td><td style="vertical-align:top;">:</td><td><div></div></td></tr><tr><td style="font-weight:bold;vertical-align:top;">expires</td><td style="vertical-align:top;">:</td><td><div></div></td></tr><tr><td style="font-weight:bold;vertical-align:top;">httponly</td><td style="vertical-align:top;">:</td><td><div></div></td></tr><tr><td style="font-weight:bold;vertical-align:top;">max-age</td><td style="vertical-align:top;">:</td><td><div></div></td></tr><tr><td style="font-weight:bold;vertical-align:top;">path</td><td style="vertical-align:top;">:</td><td><div></div></td></tr><tr><td style="font-weight:bold;vertical-align:top;">secure</td><td style="vertical-align:top;">:</td><td><div></div></td></tr><tr><td style="font-weight:bold;vertical-align:top;">version</td><td style="vertical-align:top;">:</td><td><div></div></td></tr></table></div></td></tr><tr><td style="font-weight:bold;vertical-align:top;">session_id_sub2</td><td style="vertical-align:top;">:</td><td><div>127.0.0.1-0aaccc3b-9b02-4dd6-b752-95411ebcaa02<table><tr><td style="font-weight:bold;vertical-align:top;">comment</td><td style="vertical-align:top;">:</td><td><div></div></td></tr><tr><td style="font-weight:bold;vertical-align:top;">domain</td><td style="vertical-align:top;">:</td><td><div></div></td></tr><tr><td style="font-weight:bold;vertical-align:top;">expires</td><td style="vertical-align:top;">:</td><td><div></div></td></tr><tr><td style="font-weight:bold;vertical-align:top;">httponly</td><td style="vertical-align:top;">:</td><td><div></div></td></tr><tr><td style="font-weight:bold;vertical-align:top;">max-age</td><td style="vertical-align:top;">:</td><td><div></div></td></tr><tr><td style="font-weight:bold;vertical-align:top;">path</td><td style="vertical-align:top;">:</td><td><div></div></td></tr><tr><td style="font-weight:bold;vertical-align:top;">secure</td><td style="vertical-align:top;">:</td><td><div></div></td></tr><tr><td style="font-weight:bold;vertical-align:top;">version</td><td style="vertical-align:top;">:</td><td><div></div></td></tr></table></div></td></tr><tr><td style="font-weight:bold;vertical-align:top;">session_id_sub3</td><td style="vertical-align:top;">:</td><td><div>127.0.0.1-afd32e84-5bd4-404d-8592-63fdef4d3d87<table><tr><td style="font-weight:bold;vertical-align:top;">comment</td><td style="vertical-align:top;">:</td><td><div></div></td></tr><tr><td style="font-weight:bold;vertical-align:top;">domain</td><td style="vertical-align:top;">:</td><td><div></div></td></tr><tr><td style="font-weight:bold;vertical-align:top;">expires</td><td style="vertical-align:top;">:</td><td><div></div></td></tr><tr><td style="font-weight:bold;vertical-align:top;">httponly</td><td style="vertical-align:top;">:</td><td><div></div></td></tr><tr><td style="font-weight:bold;vertical-align:top;">max-age</td><td style="vertical-align:top;">:</td><td><div></div></td></tr><tr><td style="font-weight:bold;vertical-align:top;">path</td><td style="vertical-align:top;">:</td><td><div></div></td></tr><tr><td style="font-weight:bold;vertical-align:top;">secure</td><td style="vertical-align:top;">:</td><td><div></div></td></tr><tr><td style="font-weight:bold;vertical-align:top;">version</td><td style="vertical-align:top;">:</td><td><div></div></td></tr></table></div></td></tr><tr><td style="font-weight:bold;vertical-align:top;">session_id_sub4</td><td style="vertical-align:top;">:</td><td><div>127.0.0.1-34b3d787-8a25-43da-a6ec-839da4b4e47b<table><tr><td style="font-weight:bold;vertical-align:top;">comment</td><td style="vertical-align:top;">:</td><td><div></div></td></tr><tr><td style="font-weight:bold;vertical-align:top;">domain</td><td style="vertical-align:top;">:</td><td><div></div></td></tr><tr><td style="font-weight:bold;vertical-align:top;">expires</td><td style="vertical-align:top;">:</td><td><div></div></td></tr><tr><td style="font-weight:bold;vertical-align:top;">httponly</td><td style="vertical-align:top;">:</td><td><div></div></td></tr><tr><td style="font-weight:bold;vertical-align:top;">max-age</td><td style="vertical-align:top;">:</td><td><div></div></td></tr><tr><td style="font-weight:bold;vertical-align:top;">path</td><td style="vertical-align:top;">:</td><td><div></div></td></tr><tr><td style="font-weight:bold;vertical-align:top;">secure</td><td style="vertical-align:top;">:</td><td><div></div></td></tr><tr><td style="font-weight:bold;vertical-align:top;">version</td><td style="vertical-align:top;">:</td><td><div></div></td></tr></table></div></td></tr><tr><td style="font-weight:bold;vertical-align:top;">session_id_welcome</td><td style="vertical-align:top;">:</td><td><div>127.0.0.1-94fdf1fd-1c69-4073-942e-7e53abef9340<table><tr><td style="font-weight:bold;vertical-align:top;">comment</td><td style="vertical-align:top;">:</td><td><div></div></td></tr><tr><td style="font-weight:bold;vertical-align:top;">domain</td><td style="vertical-align:top;">:</td><td><div></div></td></tr><tr><td style="font-weight:bold;vertical-align:top;">expires</td><td style="vertical-align:top;">:</td><td><div></div></td></tr><tr><td style="font-weight:bold;vertical-align:top;">httponly</td><td style="vertical-align:top;">:</td><td><div></div></td></tr><tr><td style="font-weight:bold;vertical-align:top;">max-age</td><td style="vertical-align:top;">:</td><td><div></div></td></tr><tr><td style="font-weight:bold;vertical-align:top;">path</td><td style="vertical-align:top;">:</td><td><div></div></td></tr><tr><td style="font-weight:bold;vertical-align:top;">secure</td><td style="vertical-align:top;">:</td><td><div></div></td></tr><tr><td style="font-weight:bold;vertical-align:top;">version</td><td style="vertical-align:top;">:</td><td><div></div></td></tr></table></div></td></tr></table></div></td></tr><tr><td style="font-weight:bold;vertical-align:top;">env</td><td style="vertical-align:top;">:</td><td><div><table><tr><td style="font-weight:bold;vertical-align:top;">CONTENT_LENGTH</td><td style="vertical-align:top;">:</td><td><div>1033</div></td></tr><tr><td style="font-weight:bold;vertical-align:top;">CONTENT_TYPE</td><td style="vertical-align:top;">:</td><td><div>multipart/form-data; boundary=----WebKitFormBoundaryw5mOwm6lTQ8P1jOv</div></td></tr><tr><td style="font-weight:bold;vertical-align:top;">HTTP_ACCEPT</td><td style="vertical-align:top;">:</td><td><div>text/html,application/xhtml+xml,application/xml;q=0.9,image/webp,*/*;q=0.8</div></td></tr><tr><td style="font-weight:bold;vertical-align:top;">HTTP_ACCEPT_ENCODING</td><td style="vertical-align:top;">:</td><td><div>gzip, deflate, br</div></td></tr><tr><td style="font-weight:bold;vertical-align:top;">HTTP_ACCEPT_LANGUAGE</td><td style="vertical-align:top;">:</td><td><div>en-US,en;q=0.8</div></td></tr><tr><td style="font-weight:bold;vertical-align:top;">HTTP_CACHE_CONTROL</td><td style="vertical-align:top;">:</td><td><div>max-age=0</div></td></tr><tr><td style="font-weight:bold;vertical-align:top;">HTTP_CONNECTION</td><td style="vertical-align:top;">:</td><td><div>keep-alive</div></td></tr><tr><td style="font-weight:bold;vertical-align:top;">HTTP_CONTENT_LENGTH</td><td style="vertical-align:top;">:</td><td><div>1033</div></td></tr><tr><td style="font-weight:bold;vertical-align:top;">HTTP_CONTENT_TYPE</td><td style="vertical-align:top;">:</td><td><div>multipart/form-data; boundary=----WebKitFormBoundaryw5mOwm6lTQ8P1jOv</div></td></tr><tr><td style="font-weight:bold;vertical-align:top;">HTTP_COOKIE</td><td style="vertical-align:top;">:</td><td><div>session_id_sub4=127.0.0.1-34b3d787-8a25-43da-a6ec-839da4b4e47b; session_id_sub3=127.0.0.1-afd32e84-5bd4-404d-8592-63fdef4d3d87; session_id_sub1=127.0.0.1-40e1a078-b7bc-4646-87df-84944233080a; session_id_sub2=127.0.0.1-0aaccc3b-9b02-4dd6-b752-95411ebcaa02; session_id_ajaxtest=127.0.0.1-4acfa954-ffac-481f-8844-40297074a5c6; session_id_myapp=127.0.0.1-67a36db7-ffb0-494b-8942-14176350b74e; session_id_eron=127.0.0.1-8d1e1010-9d99-4f3e-b3d1-c77b029f1fa4; session_id_forsalehw2=127.0.0.1-25af8bfd-3f1c-44a3-8ffc-e787ef4030d9; session_id_authtest=127.0.0.1-e4d5562f-14cd-4472-93c9-c4d5d3aa0a13; session_id_welcome=127.0.0.1-94fdf1fd-1c69-4073-942e-7e53abef9340; session_id_sprint1=127.0.0.1-aa1ed8c2-b6ee-402c-b9db-e5e6c9df1ec4; session_id_kennethpush2=127.0.0.1-9b9b25e9-9288-4bca-b82a-8e3d9cd64f74; session_id_admin=127.0.0.1-d00e89f2-0b29-46db-b258-1fe9c1c19363; session_id_style=127.0.0.1-fe03a2f0-65ee-4552-a209-0478a0323359</div></td></tr><tr><td style="font-weight:bold;vertical-align:top;">HTTP_HOST</td><td style="vertical-align:top;">:</td><td><div>127.0.0.1:8000</div></td></tr><tr><td style="font-weight:bold;vertical-align:top;">HTTP_ORIGIN</td><td style="vertical-align:top;">:</td><td><div>http://127.0.0.1:8000</div></td></tr><tr><td style="font-weight:bold;vertical-align:top;">HTTP_REFERER</td><td style="vertical-align:top;">:</td><td><div>http://127.0.0.1:8000/KennethPush2/default/createProject</div></td></tr><tr><td style="font-weight:bold;vertical-align:top;">HTTP_UPGRADE_INSECURE_REQUESTS</td><td style="vertical-align:top;">:</td><td><div>1</div></td></tr><tr><td style="font-weight:bold;vertical-align:top;">HTTP_USER_AGENT</td><td style="vertical-align:top;">:</td><td><div>Mozilla/5.0 (Macintosh; Intel Mac OS X 10_12_3) AppleWebKit/537.36 (KHTML, like Gecko) Chrome/56.0.2924.87 Safari/537.36</div></td></tr><tr><td style="font-weight:bold;vertical-align:top;">PATH_INFO</td><td style="vertical-align:top;">:</td><td><div>/KennethPush2/default/createProject</div></td></tr><tr><td style="font-weight:bold;vertical-align:top;">QUERY_STRING</td><td style="vertical-align:top;">:</td><td><div></div></td></tr><tr><td style="font-weight:bold;vertical-align:top;">REMOTE_ADDR</td><td style="vertical-align:top;">:</td><td><div>127.0.0.1</div></td></tr><tr><td style="font-weight:bold;vertical-align:top;">REMOTE_PORT</td><td style="vertical-align:top;">:</td><td><div>55782</div></td></tr><tr><td style="font-weight:bold;vertical-align:top;">REQUEST_METHOD</td><td style="vertical-align:top;">:</td><td><div>POST</div></td></tr><tr><td style="font-weight:bold;vertical-align:top;">SCRIPT_NAME</td><td style="vertical-align:top;">:</td><td><div></div></td></tr><tr><td style="font-weight:bold;vertical-align:top;">SERVER_NAME</td><td style="vertical-align:top;">:</td><td><div>dhcp-169-233-161-19.cruznet.ucsc.edu</div></td></tr><tr><td style="font-weight:bold;vertical-align:top;">SERVER_PORT</td><td style="vertical-align:top;">:</td><td><div>8000</div></td></tr><tr><td style="font-weight:bold;vertical-align:top;">SERVER_PROTOCOL</td><td style="vertical-align:top;">:</td><td><div>HTTP/1.1</div></td></tr><tr><td style="font-weight:bold;vertical-align:top;">SERVER_SOFTWARE</td><td style="vertical-align:top;">:</td><td><div>Rocket 1.2.6</div></td></tr><tr><td style="font-weight:bold;vertical-align:top;">app_folders</td><td style="vertical-align:top;">:</td><td><div>set([&#x27;/Users/Sri/Documents/Showcase/applications/KennethPush2/&#x27;, &#x27;/Users/Sri/Documents/Showcase/applications/Style/&#x27;, &#x27;/Users/Sri/Documents/Showcase/applications/welcome/&#x27;, &#x27;/Users/Sri/Documents/Showcase/applications/admin/&#x27;, &#x27;/Users/Sri/Documents/Showcase/applications/Sprint1/&#x27;])</div></td></tr><tr><td style="font-weight:bold;vertical-align:top;">applications_parent</td><td style="vertical-align:top;">:</td><td><div>/Users/Sri/Documents/Showcase</div></td></tr><tr><td style="font-weight:bold;vertical-align:top;">cmd_args</td><td style="vertical-align:top;">:</td><td><div><table></table></div></td></tr><tr><td style="font-weight:bold;vertical-align:top;">cmd_options</td><td style="vertical-align:top;">:</td><td><div>&lt;Values at 0x109ed5a70: {&#x27;verbose&#x27;: False, &#x27;ip&#x27;: &#x27;127.0.0.1&#x27;, &#x27;debuglevel&#x27;: 30, &#x27;with_scheduler&#x27;: False, &#x27;shutdown_timeout&#x27;: 5, &#x27;taskbar&#x27;: False, &#x27;with_coverage&#x27;: False, &#x27;pid_filename&#x27;: &#x27;httpserver.pid&#x27;, &#x27;maxthreads&#x27;: None, &#x27;softcron&#x27;: False, &#x27;server_name&#x27;: &#x27;dhcp-169-233-161-19.cruznet.ucsc.edu&#x27;, &#x27;bpython&#x27;: False, &#x27;nogui&#x27;: False, &#x27;port&#x27;: 8000, &#x27;print_errors&#x27;: False, &#x27;extcron&#x27;: False, &#x27;runcron&#x27;: False, &#x27;run_system_tests&#x27;: False, &#x27;test&#x27;: None, &#x27;folder&#x27;: &#x27;/Users/Sri/Documents/Showcase&#x27;, &#x27;config&#x27;: &#x27;&#x27;, &#x27;minthreads&#x27;: None, &#x27;shell&#x27;: None, &#x27;run&#x27;: &#x27;&#x27;, &#x27;log_filename&#x27;: &#x27;httpserver.log&#x27;, &#x27;profiler_dir&#x27;: None, &#x27;args&#x27;: [&#x27;&#x27;], &#x27;socket_timeout&#x27;: 5, &#x27;ssl_ca_certificate&#x27;: None, &#x27;scheduler&#x27;: None, &#x27;interfaces&#x27;: None, &#x27;ssl_private_key&#x27;: &#x27;&#x27;, &#x27;gae&#x27;: None, &#x27;password&#x27;: &#x27;******&#x27;, &#x27;request_queue_size&#x27;: 5, &#x27;ssl_certificate&#x27;: &#x27;&#x27;, &#x27;cronjob&#x27;: False, &#x27;numthreads&#x27;: None, &#x27;quiet&#x27;: False, &#x27;import_models&#x27;: False, &#x27;timeout&#x27;: 10, &#x27;plain&#x27;: False, &#x27;nobanner&#x27;: False}&gt;</div></td></tr><tr><td style="font-weight:bold;vertical-align:top;">content_length</td><td style="vertical-align:top;">:</td><td><div>1033</div></td></tr><tr><td style="font-weight:bold;vertical-align:top;">content_type</td><td style="vertical-align:top;">:</td><td><div>multipart/form-data; boundary=----WebKitFormBoundaryw5mOwm6lTQ8P1jOv</div></td></tr><tr><td style="font-weight:bold;vertical-align:top;">db_sessions</td><td style="vertical-align:top;">:</td><td><div>set([])</div></td></tr><tr><td style="font-weight:bold;vertical-align:top;">debugging</td><td style="vertical-align:top;">:</td><td><div>False</div></td></tr><tr><td style="font-weight:bold;vertical-align:top;">gluon_parent</td><td style="vertical-align:top;">:</td><td><div>/Users/Sri/Documents/Showcase</div></td></tr><tr><td style="font-weight:bold;vertical-align:top;">http_accept</td><td style="vertical-align:top;">:</td><td><div>text/html,application/xhtml+xml,application/xml;q=0.9,image/webp,*/*;q=0.8</div></td></tr><tr><td style="font-weight:bold;vertical-align:top;">http_accept_encoding</td><td style="vertical-align:top;">:</td><td><div>gzip, deflate, br</div></td></tr><tr><td style="font-weight:bold;vertical-align:top;">http_accept_language</td><td style="vertical-align:top;">:</td><td><div>en-US,en;q=0.8</div></td></tr><tr><td style="font-weight:bold;vertical-align:top;">http_cache_control</td><td style="vertical-align:top;">:</td><td><div>max-age=0</div></td></tr><tr><td style="font-weight:bold;vertical-align:top;">http_connection</td><td style="vertical-align:top;">:</td><td><div>keep-alive</div></td></tr><tr><td style="font-weight:bold;vertical-align:top;">http_content_length</td><td style="vertical-align:top;">:</td><td><div>1033</div></td></tr><tr><td style="font-weight:bold;vertical-align:top;">http_content_type</td><td style="vertical-align:top;">:</td><td><div>multipart/form-data; boundary=----WebKitFormBoundaryw5mOwm6lTQ8P1jOv</div></td></tr><tr><td style="font-weight:bold;vertical-align:top;">http_cookie</td><td style="vertical-align:top;">:</td><td><div>session_id_sub4=127.0.0.1-34b3d787-8a25-43da-a6ec-839da4b4e47b; session_id_sub3=127.0.0.1-afd32e84-5bd4-404d-8592-63fdef4d3d87; session_id_sub1=127.0.0.1-40e1a078-b7bc-4646-87df-84944233080a; session_id_sub2=127.0.0.1-0aaccc3b-9b02-4dd6-b752-95411ebcaa02; session_id_ajaxtest=127.0.0.1-4acfa954-ffac-481f-8844-40297074a5c6; session_id_myapp=127.0.0.1-67a36db7-ffb0-494b-8942-14176350b74e; session_id_eron=127.0.0.1-8d1e1010-9d99-4f3e-b3d1-c77b029f1fa4; session_id_forsalehw2=127.0.0.1-25af8bfd-3f1c-44a3-8ffc-e787ef4030d9; session_id_authtest=127.0.0.1-e4d5562f-14cd-4472-93c9-c4d5d3aa0a13; session_id_welcome=127.0.0.1-94fdf1fd-1c69-4073-942e-7e53abef9340; session_id_sprint1=127.0.0.1-aa1ed8c2-b6ee-402c-b9db-e5e6c9df1ec4; session_id_kennethpush2=127.0.0.1-9b9b25e9-9288-4bca-b82a-8e3d9cd64f74; session_id_admin=127.0.0.1-d00e89f2-0b29-46db-b258-1fe9c1c19363; session_id_style=127.0.0.1-fe03a2f0-65ee-4552-a209-0478a0323359</div></td></tr><tr><td style="font-weight:bold;vertical-align:top;">http_host</td><td style="vertical-align:top;">:</td><td><div>127.0.0.1:8000</div></td></tr><tr><td style="font-weight:bold;vertical-align:top;">http_origin</td><td style="vertical-align:top;">:</td><td><div>http://127.0.0.1:8000</div></td></tr><tr><td style="font-weight:bold;vertical-align:top;">http_referer</td><td style="vertical-align:top;">:</td><td><div>http://127.0.0.1:8000/KennethPush2/default/createProject</div></td></tr><tr><td style="font-weight:bold;vertical-align:top;">http_upgrade_insecure_requests</td><td style="vertical-align:top;">:</td><td><div>1</div></td></tr><tr><td style="font-weight:bold;vertical-align:top;">http_user_agent</td><td style="vertical-align:top;">:</td><td><div>Mozilla/5.0 (Macintosh; Intel Mac OS X 10_12_3) AppleWebKit/537.36 (KHTML, like Gecko) Chrome/56.0.2924.87 Safari/537.36</div></td></tr><tr><td style="font-weight:bold;vertical-align:top;">is_jython</td><td style="vertical-align:top;">:</td><td><div>False</div></td></tr><tr><td style="font-weight:bold;vertical-align:top;">is_pypy</td><td style="vertical-align:top;">:</td><td><div>False</div></td></tr><tr><td style="font-weight:bold;vertical-align:top;">is_source</td><td style="vertical-align:top;">:</td><td><div>True</div></td></tr><tr><td style="font-weight:bold;vertical-align:top;">local_hosts</td><td style="vertical-align:top;">:</td><td><div><table><tr><td><div>dhcp-169-233-161-19.cruznet.ucsc.edu</div></td></tr><tr><td><div>::1</div></td></tr><tr><td><div>169.233.161.19</div></td></tr><tr><td><div>::ffff:127.0.0.1</div></td></tr><tr><td><div>127.0.0.1</div></td></tr></table></div></td></tr><tr><td style="font-weight:bold;vertical-align:top;">path_info</td><td style="vertical-align:top;">:</td><td><div>/KennethPush2/default/createProject</div></td></tr><tr><td style="font-weight:bold;vertical-align:top;">query_string</td><td style="vertical-align:top;">:</td><td><div></div></td></tr><tr><td style="font-weight:bold;vertical-align:top;">remote_addr</td><td style="vertical-align:top;">:</td><td><div>127.0.0.1</div></td></tr><tr><td style="font-weight:bold;vertical-align:top;">remote_port</td><td style="vertical-align:top;">:</td><td><div>55782</div></td></tr><tr><td style="font-weight:bold;vertical-align:top;">request_method</td><td style="vertical-align:top;">:</td><td><div>POST</div></td></tr><tr><td style="font-weight:bold;vertical-align:top;">request_uri</td><td style="vertical-align:top;">:</td><td><div>/KennethPush2/default/createProject</div></td></tr><tr><td style="font-weight:bold;vertical-align:top;">script_name</td><td style="vertical-align:top;">:</td><td><div></div></td></tr><tr><td style="font-weight:bold;vertical-align:top;">server_name</td><td style="vertical-align:top;">:</td><td><div>dhcp-169-233-161-19.cruznet.ucsc.edu</div></td></tr><tr><td style="font-weight:bold;vertical-align:top;">server_port</td><td style="vertical-align:top;">:</td><td><div>8000</div></td></tr><tr><td style="font-weight:bold;vertical-align:top;">server_protocol</td><td style="vertical-align:top;">:</td><td><div>HTTP/1.1</div></td></tr><tr><td style="font-weight:bold;vertical-align:top;">server_software</td><td style="vertical-align:top;">:</td><td><div>Rocket 1.2.6</div></td></tr><tr><td style="font-weight:bold;vertical-align:top;">web2py_path</td><td style="vertical-align:top;">:</td><td><div>/Users/Sri/Documents/Showcase</div></td></tr><tr><td style="font-weight:bold;vertical-align:top;">web2py_version</td><td style="vertical-align:top;">:</td><td><div>2.14.6-stable+timestamp.2016.05.10.00.21.47</div></td></tr><tr><td style="font-weight:bold;vertical-align:top;">wsgi.errors</td><td style="vertical-align:top;">:</td><td><div>&lt;open file &#x27;&lt;stderr&gt;&#x27;, mode &#x27;w&#x27; at 0x108eeb1e0&gt;</div></td></tr><tr><td style="font-weight:bold;vertical-align:top;">wsgi.file_wrapper</td><td style="vertical-align:top;">:</td><td><div>&lt;class wsgiref.util.FileWrapper at 0x109e708d8&gt;</div></td></tr><tr><td style="font-weight:bold;vertical-align:top;">wsgi.input</td><td style="vertical-align:top;">:</td><td><div>&lt;socket._fileobject object at 0x10ec4a050&gt;</div></td></tr><tr><td style="font-weight:bold;vertical-align:top;">wsgi.multiprocess</td><td style="vertical-align:top;">:</td><td><div>False</div></td></tr><tr><td style="font-weight:bold;vertical-align:top;">wsgi.multithread</td><td style="vertical-align:top;">:</td><td><div>True</div></td></tr><tr><td style="font-weight:bold;vertical-align:top;">wsgi.run_once</td><td style="vertical-align:top;">:</td><td><div>False</div></td></tr><tr><td style="font-weight:bold;vertical-align:top;">wsgi.url_scheme</td><td style="vertical-align:top;">:</td><td><div>http</div></td></tr><tr><td style="font-weight:bold;vertical-align:top;">wsgi.version</td><td style="vertical-align:top;">:</td><td><div><table><tr><td><div>1</div></td></tr><tr><td><div>0</div></td></tr></table></div></td></tr><tr><td style="font-weight:bold;vertical-align:top;">wsgi_errors</td><td style="vertical-align:top;">:</td><td><div>&lt;open file &#x27;&lt;stderr&gt;&#x27;, mode &#x27;w&#x27; at 0x108eeb1e0&gt;</div></td></tr><tr><td style="font-weight:bold;vertical-align:top;">wsgi_file_wrapper</td><td style="vertical-align:top;">:</td><td><div>&lt;class wsgiref.util.FileWrapper at 0x109e708d8&gt;</div></td></tr><tr><td style="font-weight:bold;vertical-align:top;">wsgi_input</td><td style="vertical-align:top;">:</td><td><div>&lt;socket._fileobject object at 0x10ec4a050&gt;</div></td></tr><tr><td style="font-weight:bold;vertical-align:top;">wsgi_multiprocess</td><td style="vertical-align:top;">:</td><td><div>False</div></td></tr><tr><td style="font-weight:bold;vertical-align:top;">wsgi_multithread</td><td style="vertical-align:top;">:</td><td><div>True</div></td></tr><tr><td style="font-weight:bold;vertical-align:top;">wsgi_run_once</td><td style="vertical-align:top;">:</td><td><div>False</div></td></tr><tr><td style="font-weight:bold;vertical-align:top;">wsgi_url_scheme</td><td style="vertical-align:top;">:</td><td><div>http</div></td></tr><tr><td style="font-weight:bold;vertical-align:top;">wsgi_version</td><td style="vertical-align:top;">:</td><td><div><table><tr><td><div>1</div></td></tr><tr><td><div>0</div></td></tr></table></div></td></tr></table></div></td></tr><tr><td style="font-weight:bold;vertical-align:top;">extension</td><td style="vertical-align:top;">:</td><td><div>html</div></td></tr><tr><td style="font-weight:bold;vertical-align:top;">folder</td><td style="vertical-align:top;">:</td><td><div>/Users/Sri/Documents/Showcase/applications/KennethPush2/</div></td></tr><tr><td style="font-weight:bold;vertical-align:top;">function</td><td style="vertical-align:top;">:</td><td><div>createProject</div></td></tr><tr><td style="font-weight:bold;vertical-align:top;">global_settings</td><td style="vertical-align:top;">:</td><td><div><table><tr><td style="font-weight:bold;vertical-align:top;">app_folders</td><td style="vertical-align:top;">:</td><td><div>set([&#x27;/Users/Sri/Documents/Showcase/applications/KennethPush2/&#x27;, &#x27;/Users/Sri/Documents/Showcase/applications/Style/&#x27;, &#x27;/Users/Sri/Documents/Showcase/applications/welcome/&#x27;, &#x27;/Users/Sri/Documents/Showcase/applications/admin/&#x27;, &#x27;/Users/Sri/Documents/Showcase/applications/Sprint1/&#x27;])</div></td></tr><tr><td style="font-weight:bold;vertical-align:top;">applications_parent</td><td style="vertical-align:top;">:</td><td><div>/Users/Sri/Documents/Showcase</div></td></tr><tr><td style="font-weight:bold;vertical-align:top;">cmd_args</td><td style="vertical-align:top;">:</td><td><div><table></table></div></td></tr><tr><td style="font-weight:bold;vertical-align:top;">cmd_options</td><td style="vertical-align:top;">:</td><td><div>&lt;Values at 0x109ed5a70: {&#x27;verbose&#x27;: False, &#x27;ip&#x27;: &#x27;127.0.0.1&#x27;, &#x27;debuglevel&#x27;: 30, &#x27;with_scheduler&#x27;: False, &#x27;shutdown_timeout&#x27;: 5, &#x27;taskbar&#x27;: False, &#x27;with_coverage&#x27;: False, &#x27;pid_filename&#x27;: &#x27;httpserver.pid&#x27;, &#x27;maxthreads&#x27;: None, &#x27;softcron&#x27;: False, &#x27;server_name&#x27;: &#x27;dhcp-169-233-161-19.cruznet.ucsc.edu&#x27;, &#x27;bpython&#x27;: False, &#x27;nogui&#x27;: False, &#x27;port&#x27;: 8000, &#x27;print_errors&#x27;: False, &#x27;extcron&#x27;: False, &#x27;runcron&#x27;: False, &#x27;run_system_tests&#x27;: False, &#x27;test&#x27;: None, &#x27;folder&#x27;: &#x27;/Users/Sri/Documents/Showcase&#x27;, &#x27;config&#x27;: &#x27;&#x27;, &#x27;minthreads&#x27;: None, &#x27;shell&#x27;: None, &#x27;run&#x27;: &#x27;&#x27;, &#x27;log_filename&#x27;: &#x27;httpserver.log&#x27;, &#x27;profiler_dir&#x27;: None, &#x27;args&#x27;: [&#x27;&#x27;], &#x27;socket_timeout&#x27;: 5, &#x27;ssl_ca_certificate&#x27;: None, &#x27;scheduler&#x27;: None, &#x27;interfaces&#x27;: None, &#x27;ssl_private_key&#x27;: &#x27;&#x27;, &#x27;gae&#x27;: None, &#x27;password&#x27;: &#x27;******&#x27;, &#x27;request_queue_size&#x27;: 5, &#x27;ssl_certificate&#x27;: &#x27;&#x27;, &#x27;cronjob&#x27;: False, &#x27;numthreads&#x27;: None, &#x27;quiet&#x27;: False, &#x27;import_models&#x27;: False, &#x27;timeout&#x27;: 10, &#x27;plain&#x27;: False, &#x27;nobanner&#x27;: False}&gt;</div></td></tr><tr><td style="font-weight:bold;vertical-align:top;">db_sessions</td><td style="vertical-align:top;">:</td><td><div>set([])</div></td></tr><tr><td style="font-weight:bold;vertical-align:top;">debugging</td><td style="vertical-align:top;">:</td><td><div>False</div></td></tr><tr><td style="font-weight:bold;vertical-align:top;">gluon_parent</td><td style="vertical-align:top;">:</td><td><div>/Users/Sri/Documents/Showcase</div></td></tr><tr><td style="font-weight:bold;vertical-align:top;">is_jython</td><td style="vertical-align:top;">:</td><td><div>False</div></td></tr><tr><td style="font-weight:bold;vertical-align:top;">is_pypy</td><td style="vertical-align:top;">:</td><td><div>False</div></td></tr><tr><td style="font-weight:bold;vertical-align:top;">is_source</td><td style="vertical-align:top;">:</td><td><div>True</div></td></tr><tr><td style="font-weight:bold;vertical-align:top;">local_hosts</td><td style="vertical-align:top;">:</td><td><div><table><tr><td><div>dhcp-169-233-161-19.cruznet.ucsc.edu</div></td></tr><tr><td><div>::1</div></td></tr><tr><td><div>169.233.161.19</div></td></tr><tr><td><div>::ffff:127.0.0.1</div></td></tr><tr><td><div>127.0.0.1</div></td></tr></table></div></td></tr><tr><td style="font-weight:bold;vertical-align:top;">web2py_version</td><td style="vertical-align:top;">:</td><td><div>2.14.6-stable+timestamp.2016.05.10.00.21.47</div></td></tr></table></div></td></tr><tr><td style="font-weight:bold;vertical-align:top;">is_https</td><td style="vertical-align:top;">:</td><td><div>False</div></td></tr><tr><td style="font-weight:bold;vertical-align:top;">is_local</td><td style="vertical-align:top;">:</td><td><div>True</div></td></tr><tr><td style="font-weight:bold;vertical-align:top;">is_restful</td><td style="vertical-align:top;">:</td><td><div>False</div></td></tr><tr><td style="font-weight:bold;vertical-align:top;">is_scheduler</td><td style="vertical-align:top;">:</td><td><div>False</div></td></tr><tr><td style="font-weight:bold;vertical-align:top;">is_shell</td><td style="vertical-align:top;">:</td><td><div>False</div></td></tr><tr><td style="font-weight:bold;vertical-align:top;">now</td><td style="vertical-align:top;">:</td><td><div>datetime.datetime(2017, 3, 16, 22, 40, 48, 66607)</div></td></tr><tr><td style="font-weight:bold;vertical-align:top;">raw_args</td><td style="vertical-align:top;">:</td><td><div></div></td></tr><tr><td style="font-weight:bold;vertical-align:top;">raw_extension</td><td style="vertical-align:top;">:</td><td><div>None</div></td></tr><tr><td style="font-weight:bold;vertical-align:top;">url</td><td style="vertical-align:top;">:</td><td><div>/KennethPush2/default/createProject</div></td></tr><tr><td style="font-weight:bold;vertical-align:top;">utcnow</td><td style="vertical-align:top;">:</td><td><div>datetime.datetime(2017, 3, 17, 5, 40, 48, 66887)</div></td></tr><tr><td style="font-weight:bold;vertical-align:top;">wsgi</td><td style="vertical-align:top;">:</td><td><div>&lt;gluon.main.LazyWSGI object at 0x110db4fd0&gt;</div></td></tr></table></div>'
tRp62
sS'frames'
p63
(lp64
(dp65
S'file'
p66
S'/Users/Sri/Documents/Showcase/gluon/restricted.py'
p67
sS'dump'
p68
(dp69
S'environment'
p70
S"{'A': <class 'gluon.html.A'>, 'ANY_OF': <class 'gluon.validators.ANY_OF'>, 'ASSIGNJS': <function ASSIGNJS>, 'Auth': <class 'gluon.tools.Auth'>, 'B': <class 'gluon.html.B'>, 'BEAUTIFY': <class 'gluon.html.BEAUTIFY'>, 'BODY': <class 'gluon.html.BODY'>, 'BR': <class 'gluon.html.BR'>, 'BUTTON': <class 'gluon.html.BUTTON'>, 'CAT': <class 'gluon.html.CAT'>, ...}"
p71
sS'ccode'
p72
S'<code object <module> at 0x110d77430, file "/Use...ons/KennethPush2/controllers/default.py", line 1>'
p73
ssS'lnum'
p74
I227
sS'lines'
p75
(dp76
I224
S'            ccode = code'
p77
sI225
S'        else:'
p78
sI226
S'            ccode = compile2(code, layer)'
p79
sI227
S'        exec ccode in environment'
p80
sI228
S'    except HTTP:'
p81
sI229
S'        raise'
p82
sI230
S'    except RestrictedError:'
p83
sI231
S'        # do not encapsulate (obfuscate) the original RestrictedError'
p84
sI222
S'    try:'
p85
sI223
S'        if isinstance(code, types.CodeType):'
p86
ssS'call'
p87
S'(code=\'def call():\\n    """exposes all registered servic...\\n\\nresponse._vars=response._caller(createProject)\\n\', environment={\'A\': <class \'gluon.html.A\'>, \'ANY_OF\': <class \'gluon.validators.ANY_OF\'>, \'ASSIGNJS\': <function ASSIGNJS>, \'Auth\': <class \'gluon.tools.Auth\'>, \'B\': <class \'gluon.html.B\'>, \'BEAUTIFY\': <class \'gluon.html.BEAUTIFY\'>, \'BODY\': <class \'gluon.html.BODY\'>, \'BR\': <class \'gluon.html.BR\'>, \'BUTTON\': <class \'gluon.html.BUTTON\'>, \'CAT\': <class \'gluon.html.CAT\'>, ...}, layer=\'/Users/Sri/Documents/Showcase/applications/KennethPush2/controllers/default.py\')'
p88
sS'func'
p89
S'restricted'
p90
sa(dp91
g66
S'/Users/Sri/Documents/Showcase/applications/KennethPush2/controllers/default.py'
p92
sg68
(dp93
sg74
I116
sg75
(dp94
I105
S'    db.document.project_id.writable = False'
p95
sI106
S'    grid = SQLFORM.grid(db.document.project_id == project.id, args=[project.id])'
p96
sI107
S'    return dict(project=project, grid=grid)'
p97
sI108
S''
sI109
S'def user():'
p98
sI110
S'    return dict(form=auth())'
p99
sI111
S''
sI112
S'#can download docs'
p100
sI113
S'def download():'
p101
sI114
S'    return response.download(request, db)'
p102
ssg87
S'()'
p103
sg89
S'<module>'
p104
sa(dp105
g66
S'/Users/Sri/Documents/Showcase/gluon/globals.py'
p106
sg68
(dp107
S'self'
p108
S'undefined'
p109
sS'f'
S'<function createProject>'
p110
ssg74
I417
sg75
(dp111
I416
S'        self._vars = None'
p112
sI417
S'        self._caller = lambda f: f()'
p113
sI418
S'        self._view_environment = None'
p114
sI419
S'        self._custom_commit = None'
p115
sI420
S'        self._custom_rollback = None'
p116
sI421
S"        self.generic_patterns = ['*']"
p117
sI412
S"        self.flash = ''            # used by the default view layout"
p118
sI413
S'        self.meta = Storage()      # used by web2py_ajax.html'
p119
sI414
S'        self.menu = []             # used by the default view layout'
p120
sI415
S'        self.files = []            # used by web2py_ajax.html'
p121
ssg87
S'(f=<function createProject>)'
p122
sg89
S'<lambda>'
p123
sa(dp124
g66
S'/Users/Sri/Documents/Showcase/applications/KennethPush2/controllers/default.py'
p125
sg68
(dp126
S'db.project'
p127
S'<Table project (id, profile_id, title, body, ima..._Link, Vimeo_Embed_Link, created_on, created_by)>'
p128
sS'form'
p129
g109
sS'global SQLFORM'
p130
S"<class 'gluon.sqlhtml.SQLFORM'>"
p131
sS').process'
p132
g109
sS'global URL'
p133
S'<function URL>'
p134
sS'builtinnext'
p135
S'<built-in function next>'
p136
sS'global db'
p137
S'<DAL uri="sqlite://storage.sqlite">'
p138
ssg74
I63
sg75
(dp139
I64
S'    return dict(form=form)'
p140
sI65
S''
sI66
S'def projects():'
p141
sI67
S'    this_project = db.project(request.args(0, cast=int))'
p142
sI58
S"#form = SQLFORM(db.person).process(next=URL('index'))"
p143
sI59
S'#return dict(form=form)'
p144
sI60
S''
sI61
S'#create a project'
p145
sI62
S'def createProject():'
p146
sI63
S"    form = SQLFORM(db.project).process(next=URL('projects'))"
p147
ssg87
S'()'
p148
sg89
S'createProject'
p149
sa(dp150
g66
S'/Users/Sri/Documents/Showcase/gluon/html.py'
p151
sg68
(dp152
S'self'
p153
S'<gluon.sqlhtml.SQLFORM object>'
p154
sS'self.validate'
p155
S'<bound method SQLFORM.validate of <gluon.sqlhtml.SQLFORM object>>'
p156
sS'kwargs'
p157
S"{'dbio': True, 'next': '/KennethPush2/default/projects'}"
p158
ssg74
I2298
sg75
(dp159
I2293
S'                return dict(form=SQLFORM(db.table).process(onsuccess=my_callback)'
p160
sI2294
S''
sI2295
S''
sI2296
S'        """'
p161
sI2297
S"        kwargs['dbio'] = kwargs.get('dbio', True)  # necessary for SQLHTML forms"
p162
sI2298
S'        self.validate(**kwargs)'
p163
sI2299
S'        return self'
p164
sI2300
S''
sI2301
S'    REDIRECT_JS = "window.location=\'%s\';return false"'
p165
sI2302
S''
ssg87
S"(self=<gluon.sqlhtml.SQLFORM object>, **kwargs={'dbio': True, 'next': '/KennethPush2/default/projects'})"
p166
sg89
S'process'
p167
sa(dp168
g66
S'/Users/Sri/Documents/Showcase/gluon/html.py'
p169
sg68
(dp170
S'self'
p171
S'<gluon.sqlhtml.SQLFORM object>'
p172
sS'self.accepts'
p173
S'<bound method SQLFORM.accepts of <gluon.sqlhtml.SQLFORM object>>'
p174
sS'kwargs'
p175
S"{'dbio': True, 'request_vars': <Storage {'body': 'gucci', 'category': 'Music', ...6d-9f076b706f53', '_formname': 'project/create'}>, 'session': <Storage {'_formkey[project/create]': ['796dbd3b...gin]': ['d8b9b15a-4ef4-45ef-a814-a6068169f321']}>}"
p176
ssg74
I2236
sg75
(dp177
I2240
S'                else:'
p178
sI2231
S"        for key in ('message_onsuccess', 'message_onfailure', 'onsuccess',"
p179
sI2232
S"                    'onfailure', 'next', 'message_onchange', 'onchange'):"
p180
sI2233
S'            if key in kwargs:'
p181
sI2234
S'                del kwargs[key]'
p182
sI2235
S''
sI2236
S'        if self.accepts(**kwargs):'
p183
sI2237
S"            if onsuccess == 'flash':"
p184
sI2238
S'                if next:'
p185
sI2239
S'                    current.session.flash = message_onsuccess'
p186
ssg87
S"(self=<gluon.sqlhtml.SQLFORM object>, **kwargs={'dbio': True, 'request_vars': <Storage {'body': 'gucci', 'category': 'Music', ...6d-9f076b706f53', '_formname': 'project/create'}>, 'session': <Storage {'_formkey[project/create]': ['796dbd3b...gin]': ['d8b9b15a-4ef4-45ef-a814-a6068169f321']}>})"
p187
sg89
S'validate'
p188
sa(dp189
g66
S'/Users/Sri/Documents/Showcase/gluon/sqlhtml.py'
p190
sg68
(dp191
S'self.vars.id'
p192
S'None'
p193
sS'fields'
p194
S"{'Vimeo_Embed_Link': '', 'Youtube_Embed_Link': '', 'body': 'gucci', 'category': 'Music', 'created_by': 9L, 'created_on': datetime.datetime(2017, 3, 17, 5, 40, 48, 92881), 'image': '', 'profile_id': 0, 'title': 'gucci'}"
p195
sS'self'
p196
S'<gluon.sqlhtml.SQLFORM object>'
p197
sS'self.vars'
p198
S"<Storage {'body': 'gucci', 'category': 'Music', ...Vimeo_Embed_Link': '', 'Youtube_Embed_Link': ''}>"
p199
sS'self.table.insert'
p200
S'<bound method Table.insert of <Table project (id...Link, Vimeo_Embed_Link, created_on, created_by)>>'
p201
sS'self.table'
p202
S'<Table project (id, profile_id, title, body, ima..._Link, Vimeo_Embed_Link, created_on, created_by)>'
p203
ssg74
I1746
sg75
(dp204
I1741
S'                    self.vars.id = self.record[self.id_field_name]'
p205
sI1742
S'                    if fields:'
p206
sI1743
S'                        self.table._db(self.table._id == self.record['
p207
sI1744
S'                                       self.id_field_name]).update(**fields)'
p208
sI1745
S'                else:'
p209
sI1746
S'                    self.vars.id = self.table.insert(**fields)'
p210
sI1747
S''
sI1748
S'        self.accepted = ret'
p211
sI1749
S'        return ret'
p212
sI1750
S''
ssg87
S"(self=<gluon.sqlhtml.SQLFORM object>, request_vars=<Storage {'body': 'gucci', 'category': 'Music', ...6d-9f076b706f53', '_formname': 'project/create'}>, session=<Storage {'_formkey[project/create]': ['796dbd3b...gin]': ['d8b9b15a-4ef4-45ef-a814-a6068169f321']}>, formname='project/create', keepvalues=False, onvalidation=None, dbio=True, hideerror=False, detect_record_change=False, **kwargs={})"
p213
sg89
S'accepts'
p214
sa(dp215
g66
S'/Users/Sri/Documents/Showcase/gluon/packages/dal/pydal/objects.py'
p216
sg68
(dp217
S'self._listify'
p218
S'<bound method Table._listify of <Table project (...Link, Vimeo_Embed_Link, created_on, created_by)>>'
p219
sS'fields'
p220
S"{'Vimeo_Embed_Link': '', 'Youtube_Embed_Link': '', 'body': 'gucci', 'category': 'Music', 'created_by': 9L, 'created_on': datetime.datetime(2017, 3, 17, 5, 40, 48, 92881), 'image': '', 'profile_id': 0, 'title': 'gucci'}"
p221
sS'self'
p222
S'<Table project (id, profile_id, title, body, ima..._Link, Vimeo_Embed_Link, created_on, created_by)>'
p223
sS'ret'
p224
g109
sS'self._db._adapter'
p225
S'<pydal.adapters.sqlite.SQLiteAdapter object>'
p226
sS'self._db._adapter.insert'
p227
S'<bound method SQLiteAdapter.insert of <pydal.adapters.sqlite.SQLiteAdapter object>>'
p228
sS'self._db'
p229
S'<DAL uri="sqlite://storage.sqlite">'
p230
ssg74
I726
sg75
(dp231
I721
S'    def insert(self, **fields):'
p232
sI722
S'        fields = self._defaults(fields)'
p233
sI723
S'        self._attempt_upload(fields)'
p234
sI724
S'        if any(f(fields) for f in self._before_insert):'
p235
sI725
S'            return 0'
p236
sI726
S'        ret = self._db._adapter.insert(self, self._listify(fields))'
p237
sI727
S'        if ret and self._after_insert:'
p238
sI728
S'            fields = Row(fields)'
p239
sI729
S'            [f(fields, ret) for f in self._after_insert]'
p240
sI730
S'        return ret'
p241
ssg87
S"(self=<Table project (id, profile_id, title, body, ima..._Link, Vimeo_Embed_Link, created_on, created_by)>, **fields={'Vimeo_Embed_Link': '', 'Youtube_Embed_Link': '', 'body': 'gucci', 'category': 'Music', 'created_by': 9L, 'created_on': datetime.datetime(2017, 3, 17, 5, 40, 48, 92881), 'image': '', 'profile_id': 0, 'title': 'gucci'})"
p242
sg89
S'insert'
p243
sa(dp244
g66
S'/Users/Sri/Documents/Showcase/gluon/packages/dal/pydal/adapters/base.py'
p245
sg68
(dp246
S'e'
S"IntegrityError('FOREIGN KEY constraint failed',)"
p247
ssg74
I746
sg75
(dp248
I741
S'            self.execute(query)'
p249
sI742
S'        except Exception:'
p250
sI743
S'            e = sys.exc_info()[1]'
p251
sI744
S"            if hasattr(table,'_on_insert_error'):"
p252
sI745
S'                return table._on_insert_error(table,fields,e)'
p253
sI746
S'            raise e'
p254
sI747
S"        if hasattr(table, '_primarykey'):"
p255
sI748
S'            mydict = dict([(k[0].name, k[1]) for k in fields if k[0].name in table._primarykey])'
p256
sI749
S'            if mydict != {}:'
p257
sI750
S'                return mydict'
p258
ssg87
S"(self=<pydal.adapters.sqlite.SQLiteAdapter object>, table=<Table project (id, profile_id, title, body, ima..._Link, Vimeo_Embed_Link, created_on, created_by)>, fields=[(<pydal.objects.Field object>, 'gucci'), (<pydal.objects.Field object>, 'Music'), (<pydal.objects.Field object>, 'gucci'), (<pydal.objects.Field object>, ''), (<pydal.objects.Field object>, 0), (<pydal.objects.Field object>, 9L), (<pydal.objects.Field object>, datetime.datetime(2017, 3, 17, 5, 40, 48, 92881)), (<pydal.objects.Field object>, ''), (<pydal.objects.Field object>, '')])"
p259
sg89
g243
sasS'pyver'
p260
S'Python 2.7.10: /System/Library/Frameworks/Python.framework/Versions/2.7/Resources/Python.app/Contents/MacOS/Python (prefix: /System/Library/Frameworks/Python.framework/Versions/2.7)'
p261
sS'session'
p262
g61
(S'sY\x08\x00\x00<div><table><tr><td style="font-weight:bold;vertical-align:top;">auth</td><td style="vertical-align:top;">:</td><td><div><table><tr><td style="font-weight:bold;vertical-align:top;">expiration</td><td style="vertical-align:top;">:</td><td><div>3600</div></td></tr><tr><td style="font-weight:bold;vertical-align:top;">hmac_key</td><td style="vertical-align:top;">:</td><td><div>ae7671fd-d1d2-4c1a-aa93-3bf597857a47</div></td></tr><tr><td style="font-weight:bold;vertical-align:top;">last_visit</td><td style="vertical-align:top;">:</td><td><div>datetime.datetime(2017, 3, 16, 22, 40, 22, 50719)</div></td></tr><tr><td style="font-weight:bold;vertical-align:top;">user</td><td style="vertical-align:top;">:</td><td><div><table><tr><td style="font-weight:bold;vertical-align:top;">email</td><td style="vertical-align:top;">:</td><td><div>dumbhoe@ucsc.edu</div></td></tr><tr><td style="font-weight:bold;vertical-align:top;">first_name</td><td style="vertical-align:top;">:</td><td><div>hoe</div></td></tr><tr><td style="font-weight:bold;vertical-align:top;">id</td><td style="vertical-align:top;">:</td><td><div>9L</div></td></tr><tr><td style="font-weight:bold;vertical-align:top;">last_name</td><td style="vertical-align:top;">:</td><td><div>hoe</div></td></tr><tr><td style="font-weight:bold;vertical-align:top;">registration_id</td><td style="vertical-align:top;">:</td><td><div></div></td></tr><tr><td style="font-weight:bold;vertical-align:top;">registration_key</td><td style="vertical-align:top;">:</td><td><div></div></td></tr><tr><td style="font-weight:bold;vertical-align:top;">reset_password_key</td><td style="vertical-align:top;">:</td><td><div></div></td></tr></table></div></td></tr><tr><td style="font-weight:bold;vertical-align:top;">user_groups</td><td style="vertical-align:top;">:</td><td><div><table><tr><td style="font-weight:bold;vertical-align:top;">9</td><td style="vertical-align:top;">:</td><td><div>user_9</div></td></tr></table></div></td></tr></table></div></td></tr><tr><td style="font-weight:bold;vertical-align:top;">flash</td><td style="vertical-align:top;">:</td><td><div>None</div></td></tr></table></div>'
tRp263
sS'etype'
p264
S"<class 'sqlite3.IntegrityError'>"
p265
sS'date'
p266
S'Thu Mar 16 22:40:48 2017'
p267
sS'response'
p268
g61
(S'sF\x1d\x00\x00<div><table><tr><td style="font-weight:bold;vertical-align:top;">body</td><td style="vertical-align:top;">:</td><td><div>&lt;cStringIO.StringO object at 0x110e50848&gt;</div></td></tr><tr><td style="font-weight:bold;vertical-align:top;">cookies</td><td style="vertical-align:top;">:</td><td><div><table><tr><td style="font-weight:bold;vertical-align:top;">session_id_kennethpush2</td><td style="vertical-align:top;">:</td><td><div>127.0.0.1-9b9b25e9-9288-4bca-b82a-8e3d9cd64f74<table><tr><td style="font-weight:bold;vertical-align:top;">comment</td><td style="vertical-align:top;">:</td><td><div></div></td></tr><tr><td style="font-weight:bold;vertical-align:top;">domain</td><td style="vertical-align:top;">:</td><td><div></div></td></tr><tr><td style="font-weight:bold;vertical-align:top;">expires</td><td style="vertical-align:top;">:</td><td><div></div></td></tr><tr><td style="font-weight:bold;vertical-align:top;">httponly</td><td style="vertical-align:top;">:</td><td><div></div></td></tr><tr><td style="font-weight:bold;vertical-align:top;">max-age</td><td style="vertical-align:top;">:</td><td><div></div></td></tr><tr><td style="font-weight:bold;vertical-align:top;">path</td><td style="vertical-align:top;">:</td><td><div>/</div></td></tr><tr><td style="font-weight:bold;vertical-align:top;">secure</td><td style="vertical-align:top;">:</td><td><div></div></td></tr><tr><td style="font-weight:bold;vertical-align:top;">version</td><td style="vertical-align:top;">:</td><td><div></div></td></tr></table></div></td></tr></table></div></td></tr><tr><td style="font-weight:bold;vertical-align:top;">delimiters</td><td style="vertical-align:top;">:</td><td><div><table><tr><td><div>{{</div></td></tr><tr><td><div>}}</div></td></tr></table></div></td></tr><tr><td style="font-weight:bold;vertical-align:top;">files</td><td style="vertical-align:top;">:</td><td><div><table></table></div></td></tr><tr><td style="font-weight:bold;vertical-align:top;">flash</td><td style="vertical-align:top;">:</td><td><div></div></td></tr><tr><td style="font-weight:bold;vertical-align:top;">form_label_separator</td><td style="vertical-align:top;">:</td><td><div>: </div></td></tr><tr><td style="font-weight:bold;vertical-align:top;">formstyle</td><td style="vertical-align:top;">:</td><td><div>table3cols</div></td></tr><tr><td style="font-weight:bold;vertical-align:top;">generic_patterns</td><td style="vertical-align:top;">:</td><td><div><table><tr><td><div>*</div></td></tr></table></div></td></tr><tr><td style="font-weight:bold;vertical-align:top;">google_analytics_id</td><td style="vertical-align:top;">:</td><td><div>None</div></td></tr><tr><td style="font-weight:bold;vertical-align:top;">headers</td><td style="vertical-align:top;">:</td><td><div><table><tr><td style="font-weight:bold;vertical-align:top;">X-Powered-By</td><td style="vertical-align:top;">:</td><td><div>web2py</div></td></tr></table></div></td></tr><tr><td style="font-weight:bold;vertical-align:top;">logo</td><td style="vertical-align:top;">:</td><td><div><a class="brand" href="http://127.0.0.1:8000/Sprint1/default/index"><b>Showcase</b>&trade;</a></div></td></tr><tr><td style="font-weight:bold;vertical-align:top;">menu</td><td style="vertical-align:top;">:</td><td><div><table><tr><td><div><table><tr><td><div>Home</div></td></tr><tr><td><div>False</div></td></tr><tr><td><div>/KennethPush2/default/index</div></td></tr><tr><td><div><table></table></div></td></tr></table></div></td></tr></table></div></td></tr><tr><td style="font-weight:bold;vertical-align:top;">meta</td><td style="vertical-align:top;">:</td><td><div><table><tr><td style="font-weight:bold;vertical-align:top;">author</td><td style="vertical-align:top;">:</td><td><div>Your Name &lt;you@example.com&gt;</div></td></tr><tr><td style="font-weight:bold;vertical-align:top;">description</td><td style="vertical-align:top;">:</td><td><div>a cool new app</div></td></tr><tr><td style="font-weight:bold;vertical-align:top;">generator</td><td style="vertical-align:top;">:</td><td><div>Web2py Web Framework</div></td></tr><tr><td style="font-weight:bold;vertical-align:top;">keywords</td><td style="vertical-align:top;">:</td><td><div>web2py, python, framework</div></td></tr></table></div></td></tr><tr><td style="font-weight:bold;vertical-align:top;">models_to_run</td><td style="vertical-align:top;">:</td><td><div><table><tr><td><div>^\\w+\\.py$</div></td></tr><tr><td><div>^default/\\w+\\.py$</div></td></tr><tr><td><div>^default/createProject/\\w+\\.py$</div></td></tr></table></div></td></tr><tr><td style="font-weight:bold;vertical-align:top;">postprocessing</td><td style="vertical-align:top;">:</td><td><div><table></table></div></td></tr><tr><td style="font-weight:bold;vertical-align:top;">session_client</td><td style="vertical-align:top;">:</td><td><div>127.0.0.1</div></td></tr><tr><td style="font-weight:bold;vertical-align:top;">session_cookie_compression_level</td><td style="vertical-align:top;">:</td><td><div>None</div></td></tr><tr><td style="font-weight:bold;vertical-align:top;">session_cookie_expires</td><td style="vertical-align:top;">:</td><td><div>None</div></td></tr><tr><td style="font-weight:bold;vertical-align:top;">session_data_name</td><td style="vertical-align:top;">:</td><td><div>session_data_kennethpush2</div></td></tr><tr><td style="font-weight:bold;vertical-align:top;">session_file</td><td style="vertical-align:top;">:</td><td><div>&lt;open file &#x27;/Users/Sri/Documents/Showcase/applications/KennethPush2/sessions/110/1f2/127.0.0.1-9b9b25e9-9288-4bca-b82a-8e3d9cd64f74&#x27;, mode &#x27;rb+&#x27; at 0x1107541e0&gt;</div></td></tr><tr><td style="font-weight:bold;vertical-align:top;">session_filename</td><td style="vertical-align:top;">:</td><td><div>/Users/Sri/Documents/Showcase/applications/KennethPush2/sessions/127.0.0.1-9b9b25e9-9288-4bca-b82a-8e3d9cd64f74</div></td></tr><tr><td style="font-weight:bold;vertical-align:top;">session_hash</td><td style="vertical-align:top;">:</td><td><div>9181670385f102ae4fe25836329dd093</div></td></tr><tr><td style="font-weight:bold;vertical-align:top;">session_id</td><td style="vertical-align:top;">:</td><td><div>127.0.0.1-9b9b25e9-9288-4bca-b82a-8e3d9cd64f74</div></td></tr><tr><td style="font-weight:bold;vertical-align:top;">session_id_name</td><td style="vertical-align:top;">:</td><td><div>session_id_kennethpush2</div></td></tr><tr><td style="font-weight:bold;vertical-align:top;">session_locked</td><td style="vertical-align:top;">:</td><td><div>True</div></td></tr><tr><td style="font-weight:bold;vertical-align:top;">session_masterapp</td><td style="vertical-align:top;">:</td><td><div>KennethPush2</div></td></tr><tr><td style="font-weight:bold;vertical-align:top;">session_new</td><td style="vertical-align:top;">:</td><td><div>False</div></td></tr><tr><td style="font-weight:bold;vertical-align:top;">session_storage_type</td><td style="vertical-align:top;">:</td><td><div>file</div></td></tr><tr><td style="font-weight:bold;vertical-align:top;">status</td><td style="vertical-align:top;">:</td><td><div>200</div></td></tr><tr><td style="font-weight:bold;vertical-align:top;">subtitle</td><td style="vertical-align:top;">:</td><td><div></div></td></tr><tr><td style="font-weight:bold;vertical-align:top;">title</td><td style="vertical-align:top;">:</td><td><div>Kennethpush2</div></td></tr><tr><td style="font-weight:bold;vertical-align:top;">view</td><td style="vertical-align:top;">:</td><td><div>default/createProject.html</div></td></tr></table></div>'
tRp269
sS'locals'
p270
(dp271
S'query'
p272
S'"INSERT INTO project(body,category,title,image,pr...sic\',\'gucci\',\'\',0,9,\'2017-03-17 05:40:48\',\'\',\'\');"'
p273
sS'self'
p274
S'<pydal.adapters.sqlite.SQLiteAdapter object>'
p275
sS'e'
S"IntegrityError('FOREIGN KEY constraint failed',)"
p276
sS'fields'
p277
S"[(<pydal.objects.Field object>, 'gucci'), (<pydal.objects.Field object>, 'Music'), (<pydal.objects.Field object>, 'gucci'), (<pydal.objects.Field object>, ''), (<pydal.objects.Field object>, 0), (<pydal.objects.Field object>, 9L), (<pydal.objects.Field object>, datetime.datetime(2017, 3, 17, 5, 40, 48, 92881)), (<pydal.objects.Field object>, ''), (<pydal.objects.Field object>, '')]"
p278
sS'table'
p279
S'<Table project (id, profile_id, title, body, ima..._Link, Vimeo_Embed_Link, created_on, created_by)>'
p280
sssS'traceback'
p281
S'Traceback (most recent call last):\n  File "/Users/Sri/Documents/Showcase/gluon/restricted.py", line 227, in restricted\n    exec ccode in environment\n  File "/Users/Sri/Documents/Showcase/applications/KennethPush2/controllers/default.py", line 116, in <module>\n  File "/Users/Sri/Documents/Showcase/gluon/globals.py", line 417, in <lambda>\n    self._caller = lambda f: f()\n  File "/Users/Sri/Documents/Showcase/applications/KennethPush2/controllers/default.py", line 63, in createProject\n    form = SQLFORM(db.project).process(next=URL(\'projects\'))\n  File "/Users/Sri/Documents/Showcase/gluon/html.py", line 2298, in process\n    self.validate(**kwargs)\n  File "/Users/Sri/Documents/Showcase/gluon/html.py", line 2236, in validate\n    if self.accepts(**kwargs):\n  File "/Users/Sri/Documents/Showcase/gluon/sqlhtml.py", line 1746, in accepts\n    self.vars.id = self.table.insert(**fields)\n  File "/Users/Sri/Documents/Showcase/gluon/packages/dal/pydal/objects.py", line 726, in insert\n    ret = self._db._adapter.insert(self, self._listify(fields))\n  File "/Users/Sri/Documents/Showcase/gluon/packages/dal/pydal/adapters/base.py", line 746, in insert\n    raise e\nIntegrityError: FOREIGN KEY constraint failed\n'
p282
s.