(dp1
S'output'
p2
S"<class 'sqlite3.OperationalError'> no such column: project.created_on"
p3
sS'layer'
p4
S'/Users/Sri/Documents/Showcase/applications/Sprint1/views/default/profile.html'
p5
sS'code'
p6
S'response.write(\'<!DOCTYPE html PUBLIC "-//W3C//DTD XHTML 1.0 Strict//EN" "http://www.w3.org/TR/xhtml1/DTD/xhtml1-strict.dtd">\\r\\n<!--\\r\\n\\r\\nDesign by Free CSS Templates\\r\\nhttp://www.freecsstemplates.org\\r\\nReleased for free under a Creative Commons Attribution 2.5 License\\r\\n\\r\\nTitle      : SettingsVersion    : 1.0\\r\\nReleased   : 20081010\\r\\nDescription: A two-column, fixed-width and lightweight template ideal for 1024x768 resolutions. Suitable for blogs and small websites.\\r\\n\\r\\n-->\\r\\n<html xmlns="http://www.w3.org/1999/xhtml">\\r\\n <head>\\r\\n  <title>\\r\\n   \', escape=False)\nresponse.write(response.title or request.application)\nresponse.write(\'\\r\\n  </title>\\r\\n  <link rel="stylesheet" type="text/css" href="//fonts.googleapis.com/css?family=Sansita+One" />\\r\\n  \', escape=False)\nresponse.files.append(URL(request.application,\'static\',\'plugin_layouts/layouts/Settings/default.css\'))\nresponse.write(\'\\r\\n  \', escape=False)\nresponse.files.append(URL(\'static\',\'plugin_layouts/superfish.js\'))\nresponse.write(\'\\r\\n  \', escape=False)\nresponse.write(\'<script type="text/javascript"><!--\\n    // These variables are used by the web2py_ajax_init function in web2py_ajax.js (which is loaded below).\\n    var w2p_ajax_confirm_message = "\', escape=False)\nresponse.write(T(\'Are you sure you want to delete this object?\'))\nresponse.write(\'";\\n    var w2p_ajax_disable_with_message = "\', escape=False)\nresponse.write(T(\'Working...\'))\nresponse.write(\'";\\n    var w2p_ajax_date_format = "\', escape=False)\nresponse.write(T(\'%Y-%m-%d\'))\nresponse.write(\'";\\n    var w2p_ajax_datetime_format = "\', escape=False)\nresponse.write(T(\'%Y-%m-%d %H:%M:%S\'))\nresponse.write(\'";\\n    var ajax_error_500 = \\\'\', escape=False)\nresponse.write(T.M(\'An error occured, please [[reload %s]] the page\') % URL(args=request.args, vars=request.get_vars))\nresponse.write("\'\\n    //--></script>\\n", escape=False)\nresponse.files.insert(0,URL(\'static\',\'js/jquery.js\'))\nresponse.files.insert(1,URL(\'static\',\'css/calendar.css\'))\nresponse.files.insert(2,URL(\'static\',\'js/calendar.js\'))\nresponse.files.insert(3,URL(\'static\',\'js/web2py.js\'))\nresponse.include_meta()\nresponse.include_files()\nresponse.write(\'\\n\', escape=False)\nresponse.write(\'\\r\\n  <style>\\r\\nul.web2py-menu-vertical { width: 150px; position: relative; top:1em; left:1em;  z-index:30; border:0; margin:0; padding: 0; list-style: none; text-decoration: none;}\\r\\nul.web2py-menu-vertical li { margin:0; padding:0; border:0; width: 150px; background: black; text-align:left;}\\r\\nul.web2py-menu-vertical li a { margin:0; padding: 1px 3px 1px 3px; border:0; width: 144px; color: white; font-size:12px;}\\r\\ndiv.flash { position: fixed; float: right; padding: 10px; top: 10px; right: 30px; opacity: 0.75; margin: 10px 10px 10px 10px; text-align: center; clear: both; color: #fff; font-size: 11pt; text-align: center; vertical-align: middle; cursor: pointer; background: purple; border: 2px solid #fff; -moz-border-radius: 5px; -webkit-border-radius: 5px; z-index: 2; }\\r\\ndiv.error { background-color: red; color: white; padding: 3px; }\\r\\n.auth_navbar { text-align:right; z-index:20; position: absolute; top: 2px; right:30px; border:0; padding:0 }\\r\\n\\r\\nbody {\\r\\n    font-family: "Sansita One";\\r\\n\\tfont-style: normal;\\r\\n\\tfont-variant: normal;\\r\\n    color: white; /*#6D6D6D*/\\r\\n}\\r\\n\\r\\na:link, a:visited {\\r\\n                background-color: orange;\\r\\n                color: white;\\r\\n                padding: 6px 10px;\\r\\n                text-align: center;\\r\\n                text-decoration: none;\\r\\n                display: inline-block;\\r\\n            }\\r\\n\\r\\n#menu a {\\r\\n    color: white;\\r\\n    padding: 2px 10px;\\r\\n    text-align: center;\\r\\n    text-decoration: none;\\r\\n    display: inline-block;\\r\\n    position: relative;left: 275px;\\r\\n}\\r\\n\\r\\n#logo h1 {\\r\\n    font-size: 38px;\\r\\n    color: White;\\r\\n    position: relative;left: -275px;\\r\\n}\\r\\n\\r\\n#menu ul{\\r\\n    border:black\\r\\n}\\r\\n\\r\\na:hover, a:active {\\r\\n    background-color: purple;\\r\\n}\\r\\n\\r\\ntd{\\r\\n   color: gray;\\r\\n}\\r\\n\\r\\ndiv{\\r\\n   color: gray;\\r\\n}\\r\\n\\r\\n\\r\\n  </style>\\r\\n </head>\\r\\n <body>\\r\\n  <!-- start header -->\\r\\n  \', escape=False)\ntry:\n    response.write(auth.navbar(action=URL(\'default\',\'user\')))\nexcept:pass\nresponse.write(\'\\r\\n\\r\\n  <div id="wrapper">\\r\\n   <!-- start header -->\\r\\n   <div id="header">\\r\\n    <div id="logo">\\r\\n     <h1>\\r\\n         Showcase\\r\\n      <!--\', escape=False)\nresponse.write(response.title or request.application)\nresponse.write(\'-->\\r\\n     </h1>\\r\\n     <h2>\\r\\n      <!--\', escape=False)\nresponse.write(response.subtitle or \'=response.subtitle\')\nresponse.write(\'-->\\r\\n     </h2>\\r\\n    </div>\\r\\n    <div id="menu">\\r\\n     \', escape=False)\nresponse.write(MENU(response.menu,_class=\'web2py-menu\'))\nresponse.write(\'\\r\\n    <script>\\r\\n      jQuery(document).ready(function(){jQuery(\\\'ul.web2py-menu\\\').superfish({delay:400});});\\r\\n    </script>\\r\\n    </div>\\r\\n   </div>\\r\\n   <!-- end header -->\\r\\n  </div>\\r\\n  <!-- start page -->\\r\\n  <div id="page">\\r\\n   <!-- start content -->\\r\\n   <div id="content">\\r\\n    <div class="flash">\', escape=False)\nresponse.write(response.flash or \'\')\nresponse.write(\'</div>\\r\\n    \', escape=False)\nresponse.write(\'\\n\\n<html>\\n\', escape=False)\nif auth.user_id:\n    response.write(\'\\n<h2 class="welcome">\', escape=False)\n    response.write(db.auth_user[auth.user_id].first_name)\n    response.write(\'  \', escape=False)\n    response.write(db.auth_user[auth.user_id].last_name)\n    response.write(\'</h2>\\n\\n\', escape=False)\n    pass\nresponse.write(\'\\n\\n\\n\\n<h3>Last Project:</h3>\\n\\n<h4>\', escape=False)\nresponse.write(last_project.title)\nresponse.write(\'</h4>\\n  <p> \', escape=False)\nresponse.write(last_project.body)\nresponse.write(\'</p>\\n  <p>Created \', escape=False)\nresponse.write(last_project.created_on)\nresponse.write(\'</p>\\n\\n    \\n<h3>Other Projects:</h3>\\n\', escape=False)\nif auth.user_id:\n    response.write(\'\\n\\n    \', escape=False)\n    for row in db().select(db.post.ALL, orderby=~db.project.created_on):\n        response.write(\'\\n                <div class="post">\\n            <b class = "pt"> <img src="\', escape=False)\n        response.write(URL(\'download\', args=post.image))\n        response.write(\'"</img> &nbsp;&nbsp;&nbsp;&nbsp;&nbsp;\\n            <a  href="\', escape=False)\n        response.write(URL(\'default\',\'projects\',args=post.id))\n        response.write(\'">\', escape=False)\n        response.write(post.title)\n        response.write(\' </a></b> &nbsp;&nbsp;&nbsp;&nbsp;&nbsp;\\n            created by: \', escape=False)\n        response.write(post.created_by)\n        response.write(\'\\n            <p calss = "new_line"></p>\\n            \', escape=False)\n        response.write(post.body)\n        response.write(\'\\n            <p></p>\\n           <b class = "cat"> Category: \', escape=False)\n        response.write(post.category)\n        response.write(\'</b>\\n           <b class = "cr_on"> &nbsp;&nbsp;&nbsp;&nbsp;&nbsp;Created on: \', escape=False)\n        response.write(post.created_on)\n        response.write(\'</b>\\n            \', escape=False)\n        if(post.created_by):\n            pass\n        response.write(\'\\n        </div>\\n        <p calss = "new_line"></p>\\n    \\n\\n               <a href="\', escape=False)\n        response.write(URL(\'default\', \'profile\', args=[last_project.id]))\n        response.write(\'">\\n                edit\\n               </a>\\n\', escape=False)\n        pass\n    response.write(\'\\n\\n\', escape=False)\n    pass\nresponse.write(\'\\n</html>\\n<!--\', escape=False)\nresponse.write(BEAUTIFY(response._vars))\nresponse.write(\'-->\\n\', escape=False)\nresponse.write(\'\\r\\n   </div>\\r\\n   <!-- end content -->\\r\\n   <!-- start sidebar -->\\r\\n   <div id="sidebar">\\r\\n    <ul>\\r\\n     <li id="search">\\r\\n      <h2>\\r\\n       <b class="text1">\\r\\n        Search\\r\\n       </b>\\r\\n      </h2>\\r\\n      <form method="get" action="">\\r\\n       <fieldset>\\r\\n        <input type="text" id="s" name="s" value="" />\\r\\n        <input type="submit" id="x" value="Search" />\\r\\n       </fieldset>\\r\\n      </form>\\r\\n     </li>\\r\\n     <li>\\r\\n      <h2>\\r\\n       <strong>\\r\\n        Lorem\\r\\n       </strong>\\r\\n       Ipsum\\r\\n      </h2>\\r\\n      <ul>\\r\\n       <li>\\r\\n        <a href="#">\\r\\n         Fusce dui neque fringilla\\r\\n        </a>\\r\\n       </li>\\r\\n       <li>\\r\\n        <a href="#">\\r\\n         Eget tempor eget nonummy\\r\\n        </a>\\r\\n       </li>\\r\\n       <li>\\r\\n        <a href="#">\\r\\n         Magna lacus bibendum mauris\\r\\n        </a>\\r\\n       </li>\\r\\n       <li>\\r\\n        <a href="#">\\r\\n         Nec metus sed donec\\r\\n        </a>\\r\\n       </li>\\r\\n       <li>\\r\\n        <a href="#">\\r\\n         Magna lacus bibendum mauris\\r\\n        </a>\\r\\n       </li>\\r\\n       <li>\\r\\n        <a href="#">\\r\\n         Velit semper nisi molestie\\r\\n        </a>\\r\\n       </li>\\r\\n       <li>\\r\\n        <a href="#">\\r\\n         Eget tempor eget nonummy\\r\\n        </a>\\r\\n       </li>\\r\\n      </ul>\\r\\n     </li>\\r\\n     <li>\\r\\n      <h2>\\r\\n       <b>\\r\\n        Volutpat\\r\\n       </b>\\r\\n       Dolore\\r\\n      </h2>\\r\\n      <ul>\\r\\n       <li>\\r\\n        <a href="#">\\r\\n         Nec metus sed donec\\r\\n        </a>\\r\\n       </li>\\r\\n       <li>\\r\\n        <a href="#">\\r\\n         Magna lacus bibendum mauris\\r\\n        </a>\\r\\n       </li>\\r\\n       <li>\\r\\n        <a href="#">\\r\\n         Velit semper nisi molestie\\r\\n        </a>\\r\\n       </li>\\r\\n       <li>\\r\\n        <a href="#">\\r\\n         Eget tempor eget nonummy\\r\\n        </a>\\r\\n       </li>\\r\\n       <li>\\r\\n        <a href="#">\\r\\n         Nec metus sed donec\\r\\n        </a>\\r\\n       </li>\\r\\n       <li>\\r\\n        <a href="#">\\r\\n         Magna lacus bibendum mauris\\r\\n        </a>\\r\\n       </li>\\r\\n       <li>\\r\\n        <a href="#">\\r\\n         Velit semper nisi molestie\\r\\n        </a>\\r\\n       </li>\\r\\n      </ul>\\r\\n     </li>\\r\\n     <li>\\r\\n      <h2>\\r\\n       <b>\\r\\n        Volutpat\\r\\n       </b>\\r\\n       Dolore\\r\\n      </h2>\\r\\n      <ul>\\r\\n       <li>\\r\\n        <a href="#">\\r\\n         Nec metus sed donec\\r\\n        </a>\\r\\n       </li>\\r\\n       <li>\\r\\n        <a href="#">\\r\\n         Magna lacus bibendum mauris\\r\\n        </a>\\r\\n       </li>\\r\\n       <li>\\r\\n        <a href="#">\\r\\n         Velit semper nisi molestie\\r\\n        </a>\\r\\n       </li>\\r\\n       <li>\\r\\n        <a href="#">\\r\\n         Eget tempor eget nonummy\\r\\n        </a>\\r\\n       </li>\\r\\n      </ul>\\r\\n     </li>\\r\\n    </ul>\\r\\n   </div>\\r\\n   <!-- end sidebar -->\\r\\n   <div style="clear: both;">\\r\\n    &nbsp;\\r\\n   </div>\\r\\n  </div>\\r\\n  <!-- end page -->\\r\\n  <!-- start footer -->\\r\\n  <div id="footer">\\r\\n      <!--\\r\\n   <p id="legal">\\r\\n    (c) 2008 YourSite. Design by\\r\\n    <a href="http://www.freecsstemplates.org/">\\r\\n     Free CSS Templates\\r\\n        -->\\r\\n    </a>\\r\\n    .\\r\\n   </p>\\r\\n  </div>\\r\\n  <!-- end footer -->\\r\\n </body>\\r\\n</html>\\r\\n\', escape=False)'
p7
sS'snapshot'
p8
(dp9
S'exception'
p10
(dp11
S'__module__'
p12
S"'sqlite3'"
p13
sS'__getslice__'
p14
S"<method-wrapper '__getslice__' of OperationalError object>"
p15
sS'__str__'
p16
S"<method-wrapper '__str__' of OperationalError object>"
p17
sS'__reduce__'
p18
S'<built-in method __reduce__ of OperationalError object>'
p19
sS'__dict__'
p20
S'{}'
p21
sS'__sizeof__'
p22
S'<built-in method __sizeof__ of OperationalError object>'
p23
sS'__weakref__'
p24
S'None'
p25
sS'__init__'
p26
S"<method-wrapper '__init__' of OperationalError object>"
p27
sS'__setattr__'
p28
S"<method-wrapper '__setattr__' of OperationalError object>"
p29
sS'__reduce_ex__'
p30
S'<built-in method __reduce_ex__ of OperationalError object>'
p31
sS'__new__'
p32
S'<built-in method __new__ of type object>'
p33
sS'__format__'
p34
S'<built-in method __format__ of OperationalError object>'
p35
sS'__class__'
p36
S"<class 'sqlite3.OperationalError'>"
p37
sS'__doc__'
p38
S'None'
p39
sS'__getitem__'
p40
S"<method-wrapper '__getitem__' of OperationalError object>"
p41
sS'__setstate__'
p42
S'<built-in method __setstate__ of OperationalError object>'
p43
sS'__getattribute__'
p44
S"<method-wrapper '__getattribute__' of OperationalError object>"
p45
sS'args'
p46
S"('no such column: project.created_on',)"
p47
sS'__subclasshook__'
p48
S'<built-in method __subclasshook__ of type object>'
p49
sS'__unicode__'
p50
S'<built-in method __unicode__ of OperationalError object>'
p51
sS'__delattr__'
p52
S"<method-wrapper '__delattr__' of OperationalError object>"
p53
sS'__repr__'
p54
S"<method-wrapper '__repr__' of OperationalError object>"
p55
sS'__hash__'
p56
S"<method-wrapper '__hash__' of OperationalError object>"
p57
ssS'evalue'
p58
S'no such column: project.created_on'
p59
sS'request'
p60
cgluon.html
XML_unpickle
p61
(S's\x85\x92\x00\x00<div><table><tr><td style="font-weight:bold;vertical-align:top;">ajax</td><td style="vertical-align:top;">:</td><td><div>False</div></td></tr><tr><td style="font-weight:bold;vertical-align:top;">application</td><td style="vertical-align:top;">:</td><td><div>Sprint1</div></td></tr><tr><td style="font-weight:bold;vertical-align:top;">args</td><td style="vertical-align:top;">:</td><td><div><table></table></div></td></tr><tr><td style="font-weight:bold;vertical-align:top;">cid</td><td style="vertical-align:top;">:</td><td><div>None</div></td></tr><tr><td style="font-weight:bold;vertical-align:top;">client</td><td style="vertical-align:top;">:</td><td><div>127.0.0.1</div></td></tr><tr><td style="font-weight:bold;vertical-align:top;">controller</td><td style="vertical-align:top;">:</td><td><div>default</div></td></tr><tr><td style="font-weight:bold;vertical-align:top;">cookies</td><td style="vertical-align:top;">:</td><td><div><table><tr><td style="font-weight:bold;vertical-align:top;">session_id_admin</td><td style="vertical-align:top;">:</td><td><div>127.0.0.1-d00e89f2-0b29-46db-b258-1fe9c1c19363<table><tr><td style="font-weight:bold;vertical-align:top;">comment</td><td style="vertical-align:top;">:</td><td><div></div></td></tr><tr><td style="font-weight:bold;vertical-align:top;">domain</td><td style="vertical-align:top;">:</td><td><div></div></td></tr><tr><td style="font-weight:bold;vertical-align:top;">expires</td><td style="vertical-align:top;">:</td><td><div></div></td></tr><tr><td style="font-weight:bold;vertical-align:top;">httponly</td><td style="vertical-align:top;">:</td><td><div></div></td></tr><tr><td style="font-weight:bold;vertical-align:top;">max-age</td><td style="vertical-align:top;">:</td><td><div></div></td></tr><tr><td style="font-weight:bold;vertical-align:top;">path</td><td style="vertical-align:top;">:</td><td><div></div></td></tr><tr><td style="font-weight:bold;vertical-align:top;">secure</td><td style="vertical-align:top;">:</td><td><div></div></td></tr><tr><td style="font-weight:bold;vertical-align:top;">version</td><td style="vertical-align:top;">:</td><td><div></div></td></tr></table></div></td></tr><tr><td style="font-weight:bold;vertical-align:top;">session_id_ajaxtest</td><td style="vertical-align:top;">:</td><td><div>127.0.0.1-4acfa954-ffac-481f-8844-40297074a5c6<table><tr><td style="font-weight:bold;vertical-align:top;">comment</td><td style="vertical-align:top;">:</td><td><div></div></td></tr><tr><td style="font-weight:bold;vertical-align:top;">domain</td><td style="vertical-align:top;">:</td><td><div></div></td></tr><tr><td style="font-weight:bold;vertical-align:top;">expires</td><td style="vertical-align:top;">:</td><td><div></div></td></tr><tr><td style="font-weight:bold;vertical-align:top;">httponly</td><td style="vertical-align:top;">:</td><td><div></div></td></tr><tr><td style="font-weight:bold;vertical-align:top;">max-age</td><td style="vertical-align:top;">:</td><td><div></div></td></tr><tr><td style="font-weight:bold;vertical-align:top;">path</td><td style="vertical-align:top;">:</td><td><div></div></td></tr><tr><td style="font-weight:bold;vertical-align:top;">secure</td><td style="vertical-align:top;">:</td><td><div></div></td></tr><tr><td style="font-weight:bold;vertical-align:top;">version</td><td style="vertical-align:top;">:</td><td><div></div></td></tr></table></div></td></tr><tr><td style="font-weight:bold;vertical-align:top;">session_id_authtest</td><td style="vertical-align:top;">:</td><td><div>127.0.0.1-87f2f9c8-44fd-4a51-87b8-048db0426222<table><tr><td style="font-weight:bold;vertical-align:top;">comment</td><td style="vertical-align:top;">:</td><td><div></div></td></tr><tr><td style="font-weight:bold;vertical-align:top;">domain</td><td style="vertical-align:top;">:</td><td><div></div></td></tr><tr><td style="font-weight:bold;vertical-align:top;">expires</td><td style="vertical-align:top;">:</td><td><div></div></td></tr><tr><td style="font-weight:bold;vertical-align:top;">httponly</td><td style="vertical-align:top;">:</td><td><div></div></td></tr><tr><td style="font-weight:bold;vertical-align:top;">max-age</td><td style="vertical-align:top;">:</td><td><div></div></td></tr><tr><td style="font-weight:bold;vertical-align:top;">path</td><td style="vertical-align:top;">:</td><td><div></div></td></tr><tr><td style="font-weight:bold;vertical-align:top;">secure</td><td style="vertical-align:top;">:</td><td><div></div></td></tr><tr><td style="font-weight:bold;vertical-align:top;">version</td><td style="vertical-align:top;">:</td><td><div></div></td></tr></table></div></td></tr><tr><td style="font-weight:bold;vertical-align:top;">session_id_eron</td><td style="vertical-align:top;">:</td><td><div>127.0.0.1-8d1e1010-9d99-4f3e-b3d1-c77b029f1fa4<table><tr><td style="font-weight:bold;vertical-align:top;">comment</td><td style="vertical-align:top;">:</td><td><div></div></td></tr><tr><td style="font-weight:bold;vertical-align:top;">domain</td><td style="vertical-align:top;">:</td><td><div></div></td></tr><tr><td style="font-weight:bold;vertical-align:top;">expires</td><td style="vertical-align:top;">:</td><td><div></div></td></tr><tr><td style="font-weight:bold;vertical-align:top;">httponly</td><td style="vertical-align:top;">:</td><td><div></div></td></tr><tr><td style="font-weight:bold;vertical-align:top;">max-age</td><td style="vertical-align:top;">:</td><td><div></div></td></tr><tr><td style="font-weight:bold;vertical-align:top;">path</td><td style="vertical-align:top;">:</td><td><div></div></td></tr><tr><td style="font-weight:bold;vertical-align:top;">secure</td><td style="vertical-align:top;">:</td><td><div></div></td></tr><tr><td style="font-weight:bold;vertical-align:top;">version</td><td style="vertical-align:top;">:</td><td><div></div></td></tr></table></div></td></tr><tr><td style="font-weight:bold;vertical-align:top;">session_id_forsalehw2</td><td style="vertical-align:top;">:</td><td><div>127.0.0.1-25af8bfd-3f1c-44a3-8ffc-e787ef4030d9<table><tr><td style="font-weight:bold;vertical-align:top;">comment</td><td style="vertical-align:top;">:</td><td><div></div></td></tr><tr><td style="font-weight:bold;vertical-align:top;">domain</td><td style="vertical-align:top;">:</td><td><div></div></td></tr><tr><td style="font-weight:bold;vertical-align:top;">expires</td><td style="vertical-align:top;">:</td><td><div></div></td></tr><tr><td style="font-weight:bold;vertical-align:top;">httponly</td><td style="vertical-align:top;">:</td><td><div></div></td></tr><tr><td style="font-weight:bold;vertical-align:top;">max-age</td><td style="vertical-align:top;">:</td><td><div></div></td></tr><tr><td style="font-weight:bold;vertical-align:top;">path</td><td style="vertical-align:top;">:</td><td><div></div></td></tr><tr><td style="font-weight:bold;vertical-align:top;">secure</td><td style="vertical-align:top;">:</td><td><div></div></td></tr><tr><td style="font-weight:bold;vertical-align:top;">version</td><td style="vertical-align:top;">:</td><td><div></div></td></tr></table></div></td></tr><tr><td style="font-weight:bold;vertical-align:top;">session_id_myapp</td><td style="vertical-align:top;">:</td><td><div>127.0.0.1-67a36db7-ffb0-494b-8942-14176350b74e<table><tr><td style="font-weight:bold;vertical-align:top;">comment</td><td style="vertical-align:top;">:</td><td><div></div></td></tr><tr><td style="font-weight:bold;vertical-align:top;">domain</td><td style="vertical-align:top;">:</td><td><div></div></td></tr><tr><td style="font-weight:bold;vertical-align:top;">expires</td><td style="vertical-align:top;">:</td><td><div></div></td></tr><tr><td style="font-weight:bold;vertical-align:top;">httponly</td><td style="vertical-align:top;">:</td><td><div></div></td></tr><tr><td style="font-weight:bold;vertical-align:top;">max-age</td><td style="vertical-align:top;">:</td><td><div></div></td></tr><tr><td style="font-weight:bold;vertical-align:top;">path</td><td style="vertical-align:top;">:</td><td><div></div></td></tr><tr><td style="font-weight:bold;vertical-align:top;">secure</td><td style="vertical-align:top;">:</td><td><div></div></td></tr><tr><td style="font-weight:bold;vertical-align:top;">version</td><td style="vertical-align:top;">:</td><td><div></div></td></tr></table></div></td></tr><tr><td style="font-weight:bold;vertical-align:top;">session_id_sprint1</td><td style="vertical-align:top;">:</td><td><div>127.0.0.1-aa1ed8c2-b6ee-402c-b9db-e5e6c9df1ec4<table><tr><td style="font-weight:bold;vertical-align:top;">comment</td><td style="vertical-align:top;">:</td><td><div></div></td></tr><tr><td style="font-weight:bold;vertical-align:top;">domain</td><td style="vertical-align:top;">:</td><td><div></div></td></tr><tr><td style="font-weight:bold;vertical-align:top;">expires</td><td style="vertical-align:top;">:</td><td><div></div></td></tr><tr><td style="font-weight:bold;vertical-align:top;">httponly</td><td style="vertical-align:top;">:</td><td><div></div></td></tr><tr><td style="font-weight:bold;vertical-align:top;">max-age</td><td style="vertical-align:top;">:</td><td><div></div></td></tr><tr><td style="font-weight:bold;vertical-align:top;">path</td><td style="vertical-align:top;">:</td><td><div></div></td></tr><tr><td style="font-weight:bold;vertical-align:top;">secure</td><td style="vertical-align:top;">:</td><td><div></div></td></tr><tr><td style="font-weight:bold;vertical-align:top;">version</td><td style="vertical-align:top;">:</td><td><div></div></td></tr></table></div></td></tr><tr><td style="font-weight:bold;vertical-align:top;">session_id_style</td><td style="vertical-align:top;">:</td><td><div>127.0.0.1-4772737a-e36d-4b8b-bce6-3dcbab41f086<table><tr><td style="font-weight:bold;vertical-align:top;">comment</td><td style="vertical-align:top;">:</td><td><div></div></td></tr><tr><td style="font-weight:bold;vertical-align:top;">domain</td><td style="vertical-align:top;">:</td><td><div></div></td></tr><tr><td style="font-weight:bold;vertical-align:top;">expires</td><td style="vertical-align:top;">:</td><td><div></div></td></tr><tr><td style="font-weight:bold;vertical-align:top;">httponly</td><td style="vertical-align:top;">:</td><td><div></div></td></tr><tr><td style="font-weight:bold;vertical-align:top;">max-age</td><td style="vertical-align:top;">:</td><td><div></div></td></tr><tr><td style="font-weight:bold;vertical-align:top;">path</td><td style="vertical-align:top;">:</td><td><div></div></td></tr><tr><td style="font-weight:bold;vertical-align:top;">secure</td><td style="vertical-align:top;">:</td><td><div></div></td></tr><tr><td style="font-weight:bold;vertical-align:top;">version</td><td style="vertical-align:top;">:</td><td><div></div></td></tr></table></div></td></tr><tr><td style="font-weight:bold;vertical-align:top;">session_id_sub1</td><td style="vertical-align:top;">:</td><td><div>127.0.0.1-40e1a078-b7bc-4646-87df-84944233080a<table><tr><td style="font-weight:bold;vertical-align:top;">comment</td><td style="vertical-align:top;">:</td><td><div></div></td></tr><tr><td style="font-weight:bold;vertical-align:top;">domain</td><td style="vertical-align:top;">:</td><td><div></div></td></tr><tr><td style="font-weight:bold;vertical-align:top;">expires</td><td style="vertical-align:top;">:</td><td><div></div></td></tr><tr><td style="font-weight:bold;vertical-align:top;">httponly</td><td style="vertical-align:top;">:</td><td><div></div></td></tr><tr><td style="font-weight:bold;vertical-align:top;">max-age</td><td style="vertical-align:top;">:</td><td><div></div></td></tr><tr><td style="font-weight:bold;vertical-align:top;">path</td><td style="vertical-align:top;">:</td><td><div></div></td></tr><tr><td style="font-weight:bold;vertical-align:top;">secure</td><td style="vertical-align:top;">:</td><td><div></div></td></tr><tr><td style="font-weight:bold;vertical-align:top;">version</td><td style="vertical-align:top;">:</td><td><div></div></td></tr></table></div></td></tr><tr><td style="font-weight:bold;vertical-align:top;">session_id_sub2</td><td style="vertical-align:top;">:</td><td><div>127.0.0.1-0aaccc3b-9b02-4dd6-b752-95411ebcaa02<table><tr><td style="font-weight:bold;vertical-align:top;">comment</td><td style="vertical-align:top;">:</td><td><div></div></td></tr><tr><td style="font-weight:bold;vertical-align:top;">domain</td><td style="vertical-align:top;">:</td><td><div></div></td></tr><tr><td style="font-weight:bold;vertical-align:top;">expires</td><td style="vertical-align:top;">:</td><td><div></div></td></tr><tr><td style="font-weight:bold;vertical-align:top;">httponly</td><td style="vertical-align:top;">:</td><td><div></div></td></tr><tr><td style="font-weight:bold;vertical-align:top;">max-age</td><td style="vertical-align:top;">:</td><td><div></div></td></tr><tr><td style="font-weight:bold;vertical-align:top;">path</td><td style="vertical-align:top;">:</td><td><div></div></td></tr><tr><td style="font-weight:bold;vertical-align:top;">secure</td><td style="vertical-align:top;">:</td><td><div></div></td></tr><tr><td style="font-weight:bold;vertical-align:top;">version</td><td style="vertical-align:top;">:</td><td><div></div></td></tr></table></div></td></tr><tr><td style="font-weight:bold;vertical-align:top;">session_id_sub3</td><td style="vertical-align:top;">:</td><td><div>127.0.0.1-afd32e84-5bd4-404d-8592-63fdef4d3d87<table><tr><td style="font-weight:bold;vertical-align:top;">comment</td><td style="vertical-align:top;">:</td><td><div></div></td></tr><tr><td style="font-weight:bold;vertical-align:top;">domain</td><td style="vertical-align:top;">:</td><td><div></div></td></tr><tr><td style="font-weight:bold;vertical-align:top;">expires</td><td style="vertical-align:top;">:</td><td><div></div></td></tr><tr><td style="font-weight:bold;vertical-align:top;">httponly</td><td style="vertical-align:top;">:</td><td><div></div></td></tr><tr><td style="font-weight:bold;vertical-align:top;">max-age</td><td style="vertical-align:top;">:</td><td><div></div></td></tr><tr><td style="font-weight:bold;vertical-align:top;">path</td><td style="vertical-align:top;">:</td><td><div></div></td></tr><tr><td style="font-weight:bold;vertical-align:top;">secure</td><td style="vertical-align:top;">:</td><td><div></div></td></tr><tr><td style="font-weight:bold;vertical-align:top;">version</td><td style="vertical-align:top;">:</td><td><div></div></td></tr></table></div></td></tr><tr><td style="font-weight:bold;vertical-align:top;">session_id_sub4</td><td style="vertical-align:top;">:</td><td><div>127.0.0.1-34b3d787-8a25-43da-a6ec-839da4b4e47b<table><tr><td style="font-weight:bold;vertical-align:top;">comment</td><td style="vertical-align:top;">:</td><td><div></div></td></tr><tr><td style="font-weight:bold;vertical-align:top;">domain</td><td style="vertical-align:top;">:</td><td><div></div></td></tr><tr><td style="font-weight:bold;vertical-align:top;">expires</td><td style="vertical-align:top;">:</td><td><div></div></td></tr><tr><td style="font-weight:bold;vertical-align:top;">httponly</td><td style="vertical-align:top;">:</td><td><div></div></td></tr><tr><td style="font-weight:bold;vertical-align:top;">max-age</td><td style="vertical-align:top;">:</td><td><div></div></td></tr><tr><td style="font-weight:bold;vertical-align:top;">path</td><td style="vertical-align:top;">:</td><td><div></div></td></tr><tr><td style="font-weight:bold;vertical-align:top;">secure</td><td style="vertical-align:top;">:</td><td><div></div></td></tr><tr><td style="font-weight:bold;vertical-align:top;">version</td><td style="vertical-align:top;">:</td><td><div></div></td></tr></table></div></td></tr><tr><td style="font-weight:bold;vertical-align:top;">session_id_welcome</td><td style="vertical-align:top;">:</td><td><div>127.0.0.1-7979a7a0-dda0-4af8-841b-90d8b40e91af<table><tr><td style="font-weight:bold;vertical-align:top;">comment</td><td style="vertical-align:top;">:</td><td><div></div></td></tr><tr><td style="font-weight:bold;vertical-align:top;">domain</td><td style="vertical-align:top;">:</td><td><div></div></td></tr><tr><td style="font-weight:bold;vertical-align:top;">expires</td><td style="vertical-align:top;">:</td><td><div></div></td></tr><tr><td style="font-weight:bold;vertical-align:top;">httponly</td><td style="vertical-align:top;">:</td><td><div></div></td></tr><tr><td style="font-weight:bold;vertical-align:top;">max-age</td><td style="vertical-align:top;">:</td><td><div></div></td></tr><tr><td style="font-weight:bold;vertical-align:top;">path</td><td style="vertical-align:top;">:</td><td><div></div></td></tr><tr><td style="font-weight:bold;vertical-align:top;">secure</td><td style="vertical-align:top;">:</td><td><div></div></td></tr><tr><td style="font-weight:bold;vertical-align:top;">version</td><td style="vertical-align:top;">:</td><td><div></div></td></tr></table></div></td></tr></table></div></td></tr><tr><td style="font-weight:bold;vertical-align:top;">env</td><td style="vertical-align:top;">:</td><td><div><table><tr><td style="font-weight:bold;vertical-align:top;">HTTP_ACCEPT</td><td style="vertical-align:top;">:</td><td><div>text/html,application/xhtml+xml,application/xml;q=0.9,image/webp,*/*;q=0.8</div></td></tr><tr><td style="font-weight:bold;vertical-align:top;">HTTP_ACCEPT_ENCODING</td><td style="vertical-align:top;">:</td><td><div>gzip, deflate, sdch, br</div></td></tr><tr><td style="font-weight:bold;vertical-align:top;">HTTP_ACCEPT_LANGUAGE</td><td style="vertical-align:top;">:</td><td><div>en-US,en;q=0.8</div></td></tr><tr><td style="font-weight:bold;vertical-align:top;">HTTP_CONNECTION</td><td style="vertical-align:top;">:</td><td><div>keep-alive</div></td></tr><tr><td style="font-weight:bold;vertical-align:top;">HTTP_COOKIE</td><td style="vertical-align:top;">:</td><td><div>session_id_sub4=127.0.0.1-34b3d787-8a25-43da-a6ec-839da4b4e47b; session_id_sub3=127.0.0.1-afd32e84-5bd4-404d-8592-63fdef4d3d87; session_id_sub1=127.0.0.1-40e1a078-b7bc-4646-87df-84944233080a; session_id_sub2=127.0.0.1-0aaccc3b-9b02-4dd6-b752-95411ebcaa02; session_id_ajaxtest=127.0.0.1-4acfa954-ffac-481f-8844-40297074a5c6; session_id_myapp=127.0.0.1-67a36db7-ffb0-494b-8942-14176350b74e; session_id_eron=127.0.0.1-8d1e1010-9d99-4f3e-b3d1-c77b029f1fa4; session_id_forsalehw2=127.0.0.1-25af8bfd-3f1c-44a3-8ffc-e787ef4030d9; session_id_welcome=127.0.0.1-7979a7a0-dda0-4af8-841b-90d8b40e91af; session_id_authtest=127.0.0.1-87f2f9c8-44fd-4a51-87b8-048db0426222; session_id_sprint1=127.0.0.1-aa1ed8c2-b6ee-402c-b9db-e5e6c9df1ec4; session_id_style=127.0.0.1-4772737a-e36d-4b8b-bce6-3dcbab41f086; session_id_admin=127.0.0.1-d00e89f2-0b29-46db-b258-1fe9c1c19363</div></td></tr><tr><td style="font-weight:bold;vertical-align:top;">HTTP_HOST</td><td style="vertical-align:top;">:</td><td><div>127.0.0.1:8000</div></td></tr><tr><td style="font-weight:bold;vertical-align:top;">HTTP_REFERER</td><td style="vertical-align:top;">:</td><td><div>http://127.0.0.1:8000/admin/default/edit/Sprint1/views/default/profile.html?id=views__default__profile__html</div></td></tr><tr><td style="font-weight:bold;vertical-align:top;">HTTP_UPGRADE_INSECURE_REQUESTS</td><td style="vertical-align:top;">:</td><td><div>1</div></td></tr><tr><td style="font-weight:bold;vertical-align:top;">HTTP_USER_AGENT</td><td style="vertical-align:top;">:</td><td><div>Mozilla/5.0 (Macintosh; Intel Mac OS X 10_12_3) AppleWebKit/537.36 (KHTML, like Gecko) Chrome/56.0.2924.87 Safari/537.36</div></td></tr><tr><td style="font-weight:bold;vertical-align:top;">PATH_INFO</td><td style="vertical-align:top;">:</td><td><div>/Sprint1/default/profile</div></td></tr><tr><td style="font-weight:bold;vertical-align:top;">QUERY_STRING</td><td style="vertical-align:top;">:</td><td><div></div></td></tr><tr><td style="font-weight:bold;vertical-align:top;">REMOTE_ADDR</td><td style="vertical-align:top;">:</td><td><div>127.0.0.1</div></td></tr><tr><td style="font-weight:bold;vertical-align:top;">REMOTE_PORT</td><td style="vertical-align:top;">:</td><td><div>54806</div></td></tr><tr><td style="font-weight:bold;vertical-align:top;">REQUEST_METHOD</td><td style="vertical-align:top;">:</td><td><div>GET</div></td></tr><tr><td style="font-weight:bold;vertical-align:top;">SCRIPT_NAME</td><td style="vertical-align:top;">:</td><td><div></div></td></tr><tr><td style="font-weight:bold;vertical-align:top;">SERVER_NAME</td><td style="vertical-align:top;">:</td><td><div>dhcp-169-233-161-19.cruznet.ucsc.edu</div></td></tr><tr><td style="font-weight:bold;vertical-align:top;">SERVER_PORT</td><td style="vertical-align:top;">:</td><td><div>8000</div></td></tr><tr><td style="font-weight:bold;vertical-align:top;">SERVER_PROTOCOL</td><td style="vertical-align:top;">:</td><td><div>HTTP/1.1</div></td></tr><tr><td style="font-weight:bold;vertical-align:top;">SERVER_SOFTWARE</td><td style="vertical-align:top;">:</td><td><div>Rocket 1.2.6</div></td></tr><tr><td style="font-weight:bold;vertical-align:top;">app_folders</td><td style="vertical-align:top;">:</td><td><div>set([&#x27;/Users/Sri/Documents/Showcase/applications/authtest/&#x27;, &#x27;/Users/Sri/Documents/Showcase/applications/Style/&#x27;, &#x27;/Users/Sri/Documents/Showcase/applications/welcome/&#x27;, &#x27;/Users/Sri/Documents/Showcase/applications/admin/&#x27;, &#x27;/Users/Sri/Documents/Showcase/applications/Sprint1/&#x27;])</div></td></tr><tr><td style="font-weight:bold;vertical-align:top;">applications_parent</td><td style="vertical-align:top;">:</td><td><div>/Users/Sri/Documents/Showcase</div></td></tr><tr><td style="font-weight:bold;vertical-align:top;">cmd_args</td><td style="vertical-align:top;">:</td><td><div><table></table></div></td></tr><tr><td style="font-weight:bold;vertical-align:top;">cmd_options</td><td style="vertical-align:top;">:</td><td><div>&lt;Values at 0x10db22a70: {&#x27;verbose&#x27;: False, &#x27;ip&#x27;: &#x27;127.0.0.1&#x27;, &#x27;debuglevel&#x27;: 30, &#x27;with_scheduler&#x27;: False, &#x27;shutdown_timeout&#x27;: 5, &#x27;taskbar&#x27;: False, &#x27;with_coverage&#x27;: False, &#x27;pid_filename&#x27;: &#x27;httpserver.pid&#x27;, &#x27;maxthreads&#x27;: None, &#x27;softcron&#x27;: False, &#x27;server_name&#x27;: &#x27;dhcp-169-233-161-19.cruznet.ucsc.edu&#x27;, &#x27;bpython&#x27;: False, &#x27;nogui&#x27;: False, &#x27;port&#x27;: 8000, &#x27;print_errors&#x27;: False, &#x27;extcron&#x27;: False, &#x27;runcron&#x27;: False, &#x27;run_system_tests&#x27;: False, &#x27;test&#x27;: None, &#x27;folder&#x27;: &#x27;/Users/Sri/Documents/Showcase&#x27;, &#x27;config&#x27;: &#x27;&#x27;, &#x27;minthreads&#x27;: None, &#x27;shell&#x27;: None, &#x27;run&#x27;: &#x27;&#x27;, &#x27;log_filename&#x27;: &#x27;httpserver.log&#x27;, &#x27;profiler_dir&#x27;: None, &#x27;args&#x27;: [&#x27;&#x27;], &#x27;socket_timeout&#x27;: 5, &#x27;ssl_ca_certificate&#x27;: None, &#x27;scheduler&#x27;: None, &#x27;interfaces&#x27;: None, &#x27;ssl_private_key&#x27;: &#x27;&#x27;, &#x27;gae&#x27;: None, &#x27;password&#x27;: &#x27;******&#x27;, &#x27;request_queue_size&#x27;: 5, &#x27;ssl_certificate&#x27;: &#x27;&#x27;, &#x27;cronjob&#x27;: False, &#x27;numthreads&#x27;: None, &#x27;quiet&#x27;: False, &#x27;import_models&#x27;: False, &#x27;timeout&#x27;: 10, &#x27;plain&#x27;: False, &#x27;nobanner&#x27;: False}&gt;</div></td></tr><tr><td style="font-weight:bold;vertical-align:top;">db_sessions</td><td style="vertical-align:top;">:</td><td><div>set([])</div></td></tr><tr><td style="font-weight:bold;vertical-align:top;">debugging</td><td style="vertical-align:top;">:</td><td><div>True</div></td></tr><tr><td style="font-weight:bold;vertical-align:top;">gluon_parent</td><td style="vertical-align:top;">:</td><td><div>/Users/Sri/Documents/Showcase</div></td></tr><tr><td style="font-weight:bold;vertical-align:top;">http_accept</td><td style="vertical-align:top;">:</td><td><div>text/html,application/xhtml+xml,application/xml;q=0.9,image/webp,*/*;q=0.8</div></td></tr><tr><td style="font-weight:bold;vertical-align:top;">http_accept_encoding</td><td style="vertical-align:top;">:</td><td><div>gzip, deflate, sdch, br</div></td></tr><tr><td style="font-weight:bold;vertical-align:top;">http_accept_language</td><td style="vertical-align:top;">:</td><td><div>en-US,en;q=0.8</div></td></tr><tr><td style="font-weight:bold;vertical-align:top;">http_connection</td><td style="vertical-align:top;">:</td><td><div>keep-alive</div></td></tr><tr><td style="font-weight:bold;vertical-align:top;">http_cookie</td><td style="vertical-align:top;">:</td><td><div>session_id_sub4=127.0.0.1-34b3d787-8a25-43da-a6ec-839da4b4e47b; session_id_sub3=127.0.0.1-afd32e84-5bd4-404d-8592-63fdef4d3d87; session_id_sub1=127.0.0.1-40e1a078-b7bc-4646-87df-84944233080a; session_id_sub2=127.0.0.1-0aaccc3b-9b02-4dd6-b752-95411ebcaa02; session_id_ajaxtest=127.0.0.1-4acfa954-ffac-481f-8844-40297074a5c6; session_id_myapp=127.0.0.1-67a36db7-ffb0-494b-8942-14176350b74e; session_id_eron=127.0.0.1-8d1e1010-9d99-4f3e-b3d1-c77b029f1fa4; session_id_forsalehw2=127.0.0.1-25af8bfd-3f1c-44a3-8ffc-e787ef4030d9; session_id_welcome=127.0.0.1-7979a7a0-dda0-4af8-841b-90d8b40e91af; session_id_authtest=127.0.0.1-87f2f9c8-44fd-4a51-87b8-048db0426222; session_id_sprint1=127.0.0.1-aa1ed8c2-b6ee-402c-b9db-e5e6c9df1ec4; session_id_style=127.0.0.1-4772737a-e36d-4b8b-bce6-3dcbab41f086; session_id_admin=127.0.0.1-d00e89f2-0b29-46db-b258-1fe9c1c19363</div></td></tr><tr><td style="font-weight:bold;vertical-align:top;">http_host</td><td style="vertical-align:top;">:</td><td><div>127.0.0.1:8000</div></td></tr><tr><td style="font-weight:bold;vertical-align:top;">http_referer</td><td style="vertical-align:top;">:</td><td><div>http://127.0.0.1:8000/admin/default/edit/Sprint1/views/default/profile.html?id=views__default__profile__html</div></td></tr><tr><td style="font-weight:bold;vertical-align:top;">http_upgrade_insecure_requests</td><td style="vertical-align:top;">:</td><td><div>1</div></td></tr><tr><td style="font-weight:bold;vertical-align:top;">http_user_agent</td><td style="vertical-align:top;">:</td><td><div>Mozilla/5.0 (Macintosh; Intel Mac OS X 10_12_3) AppleWebKit/537.36 (KHTML, like Gecko) Chrome/56.0.2924.87 Safari/537.36</div></td></tr><tr><td style="font-weight:bold;vertical-align:top;">is_jython</td><td style="vertical-align:top;">:</td><td><div>False</div></td></tr><tr><td style="font-weight:bold;vertical-align:top;">is_pypy</td><td style="vertical-align:top;">:</td><td><div>False</div></td></tr><tr><td style="font-weight:bold;vertical-align:top;">is_source</td><td style="vertical-align:top;">:</td><td><div>True</div></td></tr><tr><td style="font-weight:bold;vertical-align:top;">local_hosts</td><td style="vertical-align:top;">:</td><td><div><table><tr><td><div>dhcp-169-233-161-19.cruznet.ucsc.edu</div></td></tr><tr><td><div>::1</div></td></tr><tr><td><div>169.233.161.19</div></td></tr><tr><td><div>::ffff:127.0.0.1</div></td></tr><tr><td><div>127.0.0.1</div></td></tr></table></div></td></tr><tr><td style="font-weight:bold;vertical-align:top;">path_info</td><td style="vertical-align:top;">:</td><td><div>/Sprint1/default/profile</div></td></tr><tr><td style="font-weight:bold;vertical-align:top;">query_string</td><td style="vertical-align:top;">:</td><td><div></div></td></tr><tr><td style="font-weight:bold;vertical-align:top;">remote_addr</td><td style="vertical-align:top;">:</td><td><div>127.0.0.1</div></td></tr><tr><td style="font-weight:bold;vertical-align:top;">remote_port</td><td style="vertical-align:top;">:</td><td><div>54806</div></td></tr><tr><td style="font-weight:bold;vertical-align:top;">request_method</td><td style="vertical-align:top;">:</td><td><div>GET</div></td></tr><tr><td style="font-weight:bold;vertical-align:top;">request_uri</td><td style="vertical-align:top;">:</td><td><div>/Sprint1/default/profile</div></td></tr><tr><td style="font-weight:bold;vertical-align:top;">script_name</td><td style="vertical-align:top;">:</td><td><div></div></td></tr><tr><td style="font-weight:bold;vertical-align:top;">server_name</td><td style="vertical-align:top;">:</td><td><div>dhcp-169-233-161-19.cruznet.ucsc.edu</div></td></tr><tr><td style="font-weight:bold;vertical-align:top;">server_port</td><td style="vertical-align:top;">:</td><td><div>8000</div></td></tr><tr><td style="font-weight:bold;vertical-align:top;">server_protocol</td><td style="vertical-align:top;">:</td><td><div>HTTP/1.1</div></td></tr><tr><td style="font-weight:bold;vertical-align:top;">server_software</td><td style="vertical-align:top;">:</td><td><div>Rocket 1.2.6</div></td></tr><tr><td style="font-weight:bold;vertical-align:top;">web2py_path</td><td style="vertical-align:top;">:</td><td><div>/Users/Sri/Documents/Showcase</div></td></tr><tr><td style="font-weight:bold;vertical-align:top;">web2py_version</td><td style="vertical-align:top;">:</td><td><div>2.14.6-stable+timestamp.2016.05.10.00.21.47</div></td></tr><tr><td style="font-weight:bold;vertical-align:top;">wsgi.errors</td><td style="vertical-align:top;">:</td><td><div>&lt;open file &#x27;&lt;stderr&gt;&#x27;, mode &#x27;w&#x27; at 0x10cb381e0&gt;</div></td></tr><tr><td style="font-weight:bold;vertical-align:top;">wsgi.file_wrapper</td><td style="vertical-align:top;">:</td><td><div>&lt;class wsgiref.util.FileWrapper at 0x10dabd8d8&gt;</div></td></tr><tr><td style="font-weight:bold;vertical-align:top;">wsgi.input</td><td style="vertical-align:top;">:</td><td><div>&lt;socket._fileobject object at 0x114d177d0&gt;</div></td></tr><tr><td style="font-weight:bold;vertical-align:top;">wsgi.multiprocess</td><td style="vertical-align:top;">:</td><td><div>False</div></td></tr><tr><td style="font-weight:bold;vertical-align:top;">wsgi.multithread</td><td style="vertical-align:top;">:</td><td><div>True</div></td></tr><tr><td style="font-weight:bold;vertical-align:top;">wsgi.run_once</td><td style="vertical-align:top;">:</td><td><div>False</div></td></tr><tr><td style="font-weight:bold;vertical-align:top;">wsgi.url_scheme</td><td style="vertical-align:top;">:</td><td><div>http</div></td></tr><tr><td style="font-weight:bold;vertical-align:top;">wsgi.version</td><td style="vertical-align:top;">:</td><td><div><table><tr><td><div>1</div></td></tr><tr><td><div>0</div></td></tr></table></div></td></tr><tr><td style="font-weight:bold;vertical-align:top;">wsgi_errors</td><td style="vertical-align:top;">:</td><td><div>&lt;open file &#x27;&lt;stderr&gt;&#x27;, mode &#x27;w&#x27; at 0x10cb381e0&gt;</div></td></tr><tr><td style="font-weight:bold;vertical-align:top;">wsgi_file_wrapper</td><td style="vertical-align:top;">:</td><td><div>&lt;class wsgiref.util.FileWrapper at 0x10dabd8d8&gt;</div></td></tr><tr><td style="font-weight:bold;vertical-align:top;">wsgi_input</td><td style="vertical-align:top;">:</td><td><div>&lt;socket._fileobject object at 0x114d177d0&gt;</div></td></tr><tr><td style="font-weight:bold;vertical-align:top;">wsgi_multiprocess</td><td style="vertical-align:top;">:</td><td><div>False</div></td></tr><tr><td style="font-weight:bold;vertical-align:top;">wsgi_multithread</td><td style="vertical-align:top;">:</td><td><div>True</div></td></tr><tr><td style="font-weight:bold;vertical-align:top;">wsgi_run_once</td><td style="vertical-align:top;">:</td><td><div>False</div></td></tr><tr><td style="font-weight:bold;vertical-align:top;">wsgi_url_scheme</td><td style="vertical-align:top;">:</td><td><div>http</div></td></tr><tr><td style="font-weight:bold;vertical-align:top;">wsgi_version</td><td style="vertical-align:top;">:</td><td><div><table><tr><td><div>1</div></td></tr><tr><td><div>0</div></td></tr></table></div></td></tr></table></div></td></tr><tr><td style="font-weight:bold;vertical-align:top;">extension</td><td style="vertical-align:top;">:</td><td><div>html</div></td></tr><tr><td style="font-weight:bold;vertical-align:top;">folder</td><td style="vertical-align:top;">:</td><td><div>/Users/Sri/Documents/Showcase/applications/Sprint1/</div></td></tr><tr><td style="font-weight:bold;vertical-align:top;">function</td><td style="vertical-align:top;">:</td><td><div>profile</div></td></tr><tr><td style="font-weight:bold;vertical-align:top;">global_settings</td><td style="vertical-align:top;">:</td><td><div><table><tr><td style="font-weight:bold;vertical-align:top;">app_folders</td><td style="vertical-align:top;">:</td><td><div>set([&#x27;/Users/Sri/Documents/Showcase/applications/authtest/&#x27;, &#x27;/Users/Sri/Documents/Showcase/applications/Style/&#x27;, &#x27;/Users/Sri/Documents/Showcase/applications/welcome/&#x27;, &#x27;/Users/Sri/Documents/Showcase/applications/admin/&#x27;, &#x27;/Users/Sri/Documents/Showcase/applications/Sprint1/&#x27;])</div></td></tr><tr><td style="font-weight:bold;vertical-align:top;">applications_parent</td><td style="vertical-align:top;">:</td><td><div>/Users/Sri/Documents/Showcase</div></td></tr><tr><td style="font-weight:bold;vertical-align:top;">cmd_args</td><td style="vertical-align:top;">:</td><td><div><table></table></div></td></tr><tr><td style="font-weight:bold;vertical-align:top;">cmd_options</td><td style="vertical-align:top;">:</td><td><div>&lt;Values at 0x10db22a70: {&#x27;verbose&#x27;: False, &#x27;ip&#x27;: &#x27;127.0.0.1&#x27;, &#x27;debuglevel&#x27;: 30, &#x27;with_scheduler&#x27;: False, &#x27;shutdown_timeout&#x27;: 5, &#x27;taskbar&#x27;: False, &#x27;with_coverage&#x27;: False, &#x27;pid_filename&#x27;: &#x27;httpserver.pid&#x27;, &#x27;maxthreads&#x27;: None, &#x27;softcron&#x27;: False, &#x27;server_name&#x27;: &#x27;dhcp-169-233-161-19.cruznet.ucsc.edu&#x27;, &#x27;bpython&#x27;: False, &#x27;nogui&#x27;: False, &#x27;port&#x27;: 8000, &#x27;print_errors&#x27;: False, &#x27;extcron&#x27;: False, &#x27;runcron&#x27;: False, &#x27;run_system_tests&#x27;: False, &#x27;test&#x27;: None, &#x27;folder&#x27;: &#x27;/Users/Sri/Documents/Showcase&#x27;, &#x27;config&#x27;: &#x27;&#x27;, &#x27;minthreads&#x27;: None, &#x27;shell&#x27;: None, &#x27;run&#x27;: &#x27;&#x27;, &#x27;log_filename&#x27;: &#x27;httpserver.log&#x27;, &#x27;profiler_dir&#x27;: None, &#x27;args&#x27;: [&#x27;&#x27;], &#x27;socket_timeout&#x27;: 5, &#x27;ssl_ca_certificate&#x27;: None, &#x27;scheduler&#x27;: None, &#x27;interfaces&#x27;: None, &#x27;ssl_private_key&#x27;: &#x27;&#x27;, &#x27;gae&#x27;: None, &#x27;password&#x27;: &#x27;******&#x27;, &#x27;request_queue_size&#x27;: 5, &#x27;ssl_certificate&#x27;: &#x27;&#x27;, &#x27;cronjob&#x27;: False, &#x27;numthreads&#x27;: None, &#x27;quiet&#x27;: False, &#x27;import_models&#x27;: False, &#x27;timeout&#x27;: 10, &#x27;plain&#x27;: False, &#x27;nobanner&#x27;: False}&gt;</div></td></tr><tr><td style="font-weight:bold;vertical-align:top;">db_sessions</td><td style="vertical-align:top;">:</td><td><div>set([])</div></td></tr><tr><td style="font-weight:bold;vertical-align:top;">debugging</td><td style="vertical-align:top;">:</td><td><div>True</div></td></tr><tr><td style="font-weight:bold;vertical-align:top;">gluon_parent</td><td style="vertical-align:top;">:</td><td><div>/Users/Sri/Documents/Showcase</div></td></tr><tr><td style="font-weight:bold;vertical-align:top;">is_jython</td><td style="vertical-align:top;">:</td><td><div>False</div></td></tr><tr><td style="font-weight:bold;vertical-align:top;">is_pypy</td><td style="vertical-align:top;">:</td><td><div>False</div></td></tr><tr><td style="font-weight:bold;vertical-align:top;">is_source</td><td style="vertical-align:top;">:</td><td><div>True</div></td></tr><tr><td style="font-weight:bold;vertical-align:top;">local_hosts</td><td style="vertical-align:top;">:</td><td><div><table><tr><td><div>dhcp-169-233-161-19.cruznet.ucsc.edu</div></td></tr><tr><td><div>::1</div></td></tr><tr><td><div>169.233.161.19</div></td></tr><tr><td><div>::ffff:127.0.0.1</div></td></tr><tr><td><div>127.0.0.1</div></td></tr></table></div></td></tr><tr><td style="font-weight:bold;vertical-align:top;">web2py_version</td><td style="vertical-align:top;">:</td><td><div>2.14.6-stable+timestamp.2016.05.10.00.21.47</div></td></tr></table></div></td></tr><tr><td style="font-weight:bold;vertical-align:top;">is_https</td><td style="vertical-align:top;">:</td><td><div>False</div></td></tr><tr><td style="font-weight:bold;vertical-align:top;">is_local</td><td style="vertical-align:top;">:</td><td><div>True</div></td></tr><tr><td style="font-weight:bold;vertical-align:top;">is_restful</td><td style="vertical-align:top;">:</td><td><div>False</div></td></tr><tr><td style="font-weight:bold;vertical-align:top;">is_scheduler</td><td style="vertical-align:top;">:</td><td><div>False</div></td></tr><tr><td style="font-weight:bold;vertical-align:top;">is_shell</td><td style="vertical-align:top;">:</td><td><div>False</div></td></tr><tr><td style="font-weight:bold;vertical-align:top;">now</td><td style="vertical-align:top;">:</td><td><div>datetime.datetime(2017, 3, 16, 21, 36, 10, 276754)</div></td></tr><tr><td style="font-weight:bold;vertical-align:top;">raw_args</td><td style="vertical-align:top;">:</td><td><div></div></td></tr><tr><td style="font-weight:bold;vertical-align:top;">raw_extension</td><td style="vertical-align:top;">:</td><td><div>None</div></td></tr><tr><td style="font-weight:bold;vertical-align:top;">url</td><td style="vertical-align:top;">:</td><td><div>/Sprint1/default/profile</div></td></tr><tr><td style="font-weight:bold;vertical-align:top;">utcnow</td><td style="vertical-align:top;">:</td><td><div>datetime.datetime(2017, 3, 17, 4, 36, 10, 276767)</div></td></tr><tr><td style="font-weight:bold;vertical-align:top;">wsgi</td><td style="vertical-align:top;">:</td><td><div>&lt;gluon.main.LazyWSGI object at 0x11289d810&gt;</div></td></tr></table></div>'
tRp62
sS'frames'
p63
(lp64
(dp65
S'file'
p66
S'/Users/Sri/Documents/Showcase/gluon/restricted.py'
p67
sS'dump'
p68
(dp69
S'environment'
p70
S"{'A': <class 'gluon.html.A'>, 'ANY_OF': <class 'gluon.validators.ANY_OF'>, 'ASSIGNJS': <function ASSIGNJS>, 'Auth': <class 'gluon.tools.Auth'>, 'B': <class 'gluon.html.B'>, 'BEAUTIFY': <class 'gluon.html.BEAUTIFY'>, 'BODY': <class 'gluon.html.BODY'>, 'BR': <class 'gluon.html.BR'>, 'BUTTON': <class 'gluon.html.BUTTON'>, 'CAT': <class 'gluon.html.CAT'>, ...}"
p71
sS'ccode'
p72
S'<code object <module> at 0x11490b7b0, file "/Use...ions/Sprint1/views/default/profile.html", line 1>'
p73
ssS'lnum'
p74
I227
sS'lines'
p75
(dp76
I224
S'            ccode = code'
p77
sI225
S'        else:'
p78
sI226
S'            ccode = compile2(code, layer)'
p79
sI227
S'        exec ccode in environment'
p80
sI228
S'    except HTTP:'
p81
sI229
S'        raise'
p82
sI230
S'    except RestrictedError:'
p83
sI231
S'        # do not encapsulate (obfuscate) the original RestrictedError'
p84
sI222
S'    try:'
p85
sI223
S'        if isinstance(code, types.CodeType):'
p86
ssS'call'
p87
S'(code=\'response.write(\\\'<!DOCTYPE html PUBLIC "-//W3C//D...er -->\\\\r\\\\n </body>\\\\r\\\\n</html>\\\\r\\\\n\\\', escape=False)\', environment={\'A\': <class \'gluon.html.A\'>, \'ANY_OF\': <class \'gluon.validators.ANY_OF\'>, \'ASSIGNJS\': <function ASSIGNJS>, \'Auth\': <class \'gluon.tools.Auth\'>, \'B\': <class \'gluon.html.B\'>, \'BEAUTIFY\': <class \'gluon.html.BEAUTIFY\'>, \'BODY\': <class \'gluon.html.BODY\'>, \'BR\': <class \'gluon.html.BR\'>, \'BUTTON\': <class \'gluon.html.BUTTON\'>, \'CAT\': <class \'gluon.html.CAT\'>, ...}, layer=\'/Users/Sri/Documents/Showcase/applications/Sprint1/views/default/profile.html\')'
p88
sS'func'
p89
S'restricted'
p90
sa(dp91
g66
S'/Users/Sri/Documents/Showcase/applications/Sprint1/views/default/profile.html'
p92
sg68
(dp93
sg74
I56
sg75
(dp94
I64
S'        response.write(post.created_by)'
p95
sI65
S'        response.write(\'\\n            <p calss = "new_line"></p>\\n            \', escape=False)'
p96
sI66
S'        response.write(post.body)'
p97
sI47
S"response.write('\\n\\n\\n\\n<h3>Last Project:</h3>\\n\\n<h4>', escape=False)"
p98
sI48
S'response.write(last_project.title)'
p99
sI49
S"response.write('</h4>\\n  <p> ', escape=False)"
p100
sI50
S'response.write(last_project.body)'
p101
sI51
S"response.write('</p>\\n  <p>Created ', escape=False)"
p102
sI52
S'response.write(last_project.created_on)'
p103
sI53
S"response.write('</p>\\n\\n    \\n<h3>Other Projects:</h3>\\n', escape=False)"
p104
sI54
S'if auth.user_id:'
p105
sI55
S"    response.write('\\n\\n    ', escape=False)"
p106
sI56
S'    for row in db().select(db.post.ALL, orderby=~db.project.created_on):'
p107
sI57
S'        response.write(\'\\n                <div class="post">\\n            <b class = "pt"> <img src="\', escape=False)'
p108
sI58
S"        response.write(URL('download', args=post.image))"
p109
sI59
S'        response.write(\'"</img> &nbsp;&nbsp;&nbsp;&nbsp;&nbsp;\\n            <a  href="\', escape=False)'
p110
sI60
S"        response.write(URL('default','projects',args=post.id))"
p111
sI61
S'        response.write(\'">\', escape=False)'
p112
sI62
S'        response.write(post.title)'
p113
sI63
S"        response.write(' </a></b> &nbsp;&nbsp;&nbsp;&nbsp;&nbsp;\\n            created by: ', escape=False)"
p114
ssg87
S'()'
p115
sg89
S'<module>'
p116
sa(dp117
g66
S'/Users/Sri/Documents/Showcase/gluon/packages/dal/pydal/objects.py'
p118
sg68
(dp119
S'self.query'
p120
S'None'
p121
sS'adapter.select'
p122
S'<bound method SQLiteAdapter.select of <pydal.adapters.sqlite.SQLiteAdapter object>>'
p123
sS'fields'
p124
S'[<pydal.objects.Field object>, <pydal.objects.Field object>, <pydal.objects.Field object>, <pydal.objects.Field object>, <pydal.objects.Field object>]'
p125
sS'adapter'
p126
S'<pydal.adapters.sqlite.SQLiteAdapter object>'
p127
sS'attributes'
p128
S"{'orderby': <pydal.objects.Expression object>}"
p129
sS'self'
p130
S'<Set None>'
p131
ssg74
I2020
sg75
(dp132
I2016
S"                                    attributes.get('left', None),"
p133
sI2017
S"                                    attributes.get('orderby', None),"
p134
sI2018
S"                                    attributes.get('groupby', None))"
p135
sI2019
S'        fields = adapter.expand_all(fields, tablenames)'
p136
sI2020
S'        return adapter.select(self.query, fields, attributes)'
p137
sI2021
S''
sI2022
S'    def iterselect(self, *fields, **attributes):'
p138
sI2023
S'        adapter = self.db._adapter'
p139
sI2024
S'        tablenames = adapter.tables(self.query,'
p140
sI2015
S"                                    attributes.get('join', None),"
p141
ssg87
S"(self=<Set None>, *fields=[<pydal.objects.Field object>, <pydal.objects.Field object>, <pydal.objects.Field object>, <pydal.objects.Field object>, <pydal.objects.Field object>], **attributes={'orderby': <pydal.objects.Expression object>})"
p142
sg89
S'select'
p143
sa(dp144
g66
S'/Users/Sri/Documents/Showcase/gluon/packages/dal/pydal/adapters/sqlite.py'
p145
sg68
(dp146
S'fields'
p147
S'[<pydal.objects.Field object>, <pydal.objects.Field object>, <pydal.objects.Field object>, <pydal.objects.Field object>, <pydal.objects.Field object>]'
p148
sS'self'
p149
S'<pydal.adapters.sqlite.SQLiteAdapter object>'
p150
sS').select'
p151
S'<bound method SQLiteAdapter.select of <pydal.adapters.sqlite.SQLiteAdapter object>>'
p152
sS'attributes'
p153
S"{'orderby': <pydal.objects.Expression object>}"
p154
sS'global SQLiteAdapter'
p155
S"<class 'pydal.adapters.sqlite.SQLiteAdapter'>"
p156
sS'query'
p157
S'None'
p158
sS'builtinsuper'
p159
S"<type 'super'>"
p160
ssg74
I123
sg75
(dp161
I118
S'        Note that the entire database, rather than one record, is locked'
p162
sI119
S'        (it will be locked eventually anyway by the following UPDATE).'
p163
sI120
S'        """'
p164
sI121
S"        if attributes.get('for_update', False) and not 'cache' in attributes:"
p165
sI122
S"            self.execute('BEGIN IMMEDIATE TRANSACTION;')"
p166
sI123
S'        return super(SQLiteAdapter, self).select(query, fields, attributes)'
p167
sI124
S''
sI125
S''
sI126
S'SPATIALLIBS = {'
p168
sI127
S"    'Windows':'mod_spatialite.dll',"
p169
ssg87
S"(self=<pydal.adapters.sqlite.SQLiteAdapter object>, query=None, fields=[<pydal.objects.Field object>, <pydal.objects.Field object>, <pydal.objects.Field object>, <pydal.objects.Field object>, <pydal.objects.Field object>], attributes={'orderby': <pydal.objects.Expression object>})"
p170
sg89
g143
sa(dp171
g66
S'/Users/Sri/Documents/Showcase/gluon/packages/dal/pydal/adapters/base.py'
p172
sg68
(dp173
S'fields'
p174
S'[<pydal.objects.Field object>, <pydal.objects.Field object>, <pydal.objects.Field object>, <pydal.objects.Field object>, <pydal.objects.Field object>]'
p175
sS'self'
p176
S'<pydal.adapters.sqlite.SQLiteAdapter object>'
p177
sS'attributes'
p178
S"{'orderby': <pydal.objects.Expression object>}"
p179
sS'self._select_aux'
p180
S'<bound method SQLiteAdapter._select_aux of <pydal.adapters.sqlite.SQLiteAdapter object>>'
p181
sS'sql'
p182
S"'SELECT  post.id, post.project_id, post.body, pos...ed_by FROM post ORDER BY project.created_on DESC;'"
p183
ssg74
I1296
sg75
(dp184
I1291
S'            return cache_model('
p185
sI1292
S'                key,'
p186
sI1293
S'                lambda self=self,args=args:self._select_aux(*args),'
p187
sI1294
S'                time_expire)'
p188
sI1295
S'        else:'
p189
sI1296
S'            return self._select_aux(sql,fields,attributes)'
p190
sI1297
S''
sI1298
S'    def iterselect(self, query, fields, attributes):'
p191
sI1299
S'        sql = self._select(query, fields, attributes)'
p192
sI1300
S"        cacheable = attributes.get('cacheable', False)"
p193
ssg87
S"(self=<pydal.adapters.sqlite.SQLiteAdapter object>, query=None, fields=[<pydal.objects.Field object>, <pydal.objects.Field object>, <pydal.objects.Field object>, <pydal.objects.Field object>, <pydal.objects.Field object>], attributes={'orderby': <pydal.objects.Expression object>})"
p194
sg89
g143
sa(dp195
g66
S'/Users/Sri/Documents/Showcase/gluon/packages/dal/pydal/adapters/base.py'
p196
sg68
(dp197
S'self'
p198
S'<pydal.adapters.sqlite.SQLiteAdapter object>'
p199
sS'self.execute'
p200
S'<bound method SQLiteAdapter.execute of <pydal.adapters.sqlite.SQLiteAdapter object>>'
p201
sS'sql'
p202
S"'SELECT  post.id, post.project_id, post.body, pos...ed_by FROM post ORDER BY project.created_on DESC;'"
p203
ssg74
I1253
sg75
(dp204
I1248
S''
sI1249
S'    def _select_aux(self, sql, fields, attributes):'
p205
sI1250
S'        args_get = attributes.get'
p206
sI1251
S"        cache = args_get('cache',None)"
p207
sI1252
S'        if not cache:'
p208
sI1253
S'            self.execute(sql)'
p209
sI1254
S'            rows = self._fetchall()'
p210
sI1255
S'        else:'
p211
sI1256
S'            if isinstance(cache, dict):'
p212
sI1257
S"                cache_model = cache['model']"
p213
ssg87
S"(self=<pydal.adapters.sqlite.SQLiteAdapter object>, sql='SELECT  post.id, post.project_id, post.body, pos...ed_by FROM post ORDER BY project.created_on DESC;', fields=[<pydal.objects.Field object>, <pydal.objects.Field object>, <pydal.objects.Field object>, <pydal.objects.Field object>, <pydal.objects.Field object>], attributes={'orderby': <pydal.objects.Expression object>})"
p214
sg89
S'_select_aux'
p215
sa(dp216
g66
S'/Users/Sri/Documents/Showcase/gluon/packages/dal/pydal/adapters/base.py'
p217
sg68
(dp218
S'a'
S"('SELECT  post.id, post.project_id, post.body, pos...ed_by FROM post ORDER BY project.created_on DESC;',)"
p219
sS'self'
p220
S'<pydal.adapters.sqlite.SQLiteAdapter object>'
p221
sS'b'
g21
sS'self.log_execute'
p222
S'<bound method SQLiteAdapter.log_execute of <pydal.adapters.sqlite.SQLiteAdapter object>>'
p223
ssg74
I1388
sg75
(dp224
I1383
S'        self.db._timings.append((command,time.time()-t0))'
p225
sI1384
S'        del self.db._timings[:-TIMINGSSIZE]'
p226
sI1385
S'        return ret'
p227
sI1386
S''
sI1387
S'    def execute(self, *a, **b):'
p228
sI1388
S'        return self.log_execute(*a, **b)'
p229
sI1389
S''
sI1390
S'    def execute_test_query(self):'
p230
sI1391
S'        return self.execute(self.test_query)'
p231
sI1392
S''
ssg87
S"(self=<pydal.adapters.sqlite.SQLiteAdapter object>, *a=('SELECT  post.id, post.project_id, post.body, pos...ed_by FROM post ORDER BY project.created_on DESC;',), **b={})"
p232
sg89
S'execute'
p233
sa(dp234
g66
S'/Users/Sri/Documents/Showcase/gluon/packages/dal/pydal/adapters/base.py'
p235
sg68
(dp236
S'a'
S"('SELECT  post.id, post.project_id, post.body, pos...ed_by FROM post ORDER BY project.created_on DESC;',)"
p237
sS'b'
g21
sS'self'
p238
S'<pydal.adapters.sqlite.SQLiteAdapter object>'
p239
sS'ret'
p240
S'undefined'
p241
sS'command'
p242
S"'SELECT  post.id, post.project_id, post.body, pos...ed_by FROM post ORDER BY project.created_on DESC;'"
p243
sS'self.get_cursor'
p244
S'<bound method SQLiteAdapter.get_cursor of <pydal.adapters.sqlite.SQLiteAdapter object>>'
p245
sS').execute'
p246
g241
ssg74
I1382
sg75
(dp247
I1377
S'            command = self.filter_sql_command(command)'
p248
sI1378
S'        if self.db._debug:'
p249
sI1379
S"            self.db.logger.debug('SQL: %s' % command)"
p250
sI1380
S'        self.db._lastsql = command'
p251
sI1381
S'        t0 = time.time()'
p252
sI1382
S'        ret = self.get_cursor().execute(command, *a[1:], **b)'
p253
sI1383
S'        self.db._timings.append((command,time.time()-t0))'
p254
sI1384
S'        del self.db._timings[:-TIMINGSSIZE]'
p255
sI1385
S'        return ret'
p256
sI1386
S''
ssg87
S"(self=<pydal.adapters.sqlite.SQLiteAdapter object>, *a=('SELECT  post.id, post.project_id, post.body, pos...ed_by FROM post ORDER BY project.created_on DESC;',), **b={})"
p257
sg89
S'log_execute'
p258
sasS'pyver'
p259
S'Python 2.7.10: /System/Library/Frameworks/Python.framework/Versions/2.7/Resources/Python.app/Contents/MacOS/Python (prefix: /System/Library/Frameworks/Python.framework/Versions/2.7)'
p260
sS'session'
p261
g61
(S's\x86\t\x00\x00<div><table><tr><td style="font-weight:bold;vertical-align:top;">auth</td><td style="vertical-align:top;">:</td><td><div><table><tr><td style="font-weight:bold;vertical-align:top;">expiration</td><td style="vertical-align:top;">:</td><td><div>3600</div></td></tr><tr><td style="font-weight:bold;vertical-align:top;">hmac_key</td><td style="vertical-align:top;">:</td><td><div>65063145-99d6-4c99-85f9-2042ee1d419e</div></td></tr><tr><td style="font-weight:bold;vertical-align:top;">last_visit</td><td style="vertical-align:top;">:</td><td><div>datetime.datetime(2017, 3, 16, 21, 34, 49, 424202)</div></td></tr><tr><td style="font-weight:bold;vertical-align:top;">remember_me</td><td style="vertical-align:top;">:</td><td><div>False</div></td></tr><tr><td style="font-weight:bold;vertical-align:top;">user</td><td style="vertical-align:top;">:</td><td><div><table><tr><td style="font-weight:bold;vertical-align:top;">email</td><td style="vertical-align:top;">:</td><td><div>sboinapa@ucsc.edu</div></td></tr><tr><td style="font-weight:bold;vertical-align:top;">first_name</td><td style="vertical-align:top;">:</td><td><div>Sri</div></td></tr><tr><td style="font-weight:bold;vertical-align:top;">id</td><td style="vertical-align:top;">:</td><td><div>8L</div></td></tr><tr><td style="font-weight:bold;vertical-align:top;">last_name</td><td style="vertical-align:top;">:</td><td><div>Boinapa</div></td></tr><tr><td style="font-weight:bold;vertical-align:top;">registration_id</td><td style="vertical-align:top;">:</td><td><div></div></td></tr><tr><td style="font-weight:bold;vertical-align:top;">registration_key</td><td style="vertical-align:top;">:</td><td><div></div></td></tr><tr><td style="font-weight:bold;vertical-align:top;">reset_password_key</td><td style="vertical-align:top;">:</td><td><div></div></td></tr></table></div></td></tr><tr><td style="font-weight:bold;vertical-align:top;">user_groups</td><td style="vertical-align:top;">:</td><td><div><table></table></div></td></tr></table></div></td></tr><tr><td style="font-weight:bold;vertical-align:top;">flash</td><td style="vertical-align:top;">:</td><td><div>None</div></td></tr><tr><td style="font-weight:bold;vertical-align:top;">last_orderby</td><td style="vertical-align:top;">:</td><td><div>None</div></td></tr><tr><td style="font-weight:bold;vertical-align:top;">last_query</td><td style="vertical-align:top;">:</td><td><div>db.project.id&gt;0</div></td></tr></table></div>'
tRp262
sS'etype'
p263
S"<class 'sqlite3.OperationalError'>"
p264
sS'date'
p265
S'Thu Mar 16 21:36:10 2017'
p266
sS'response'
p267
g61
(S's\x9c\x1e\x00\x00<div><table><tr><td style="font-weight:bold;vertical-align:top;">body</td><td style="vertical-align:top;">:</td><td><div>&lt;cStringIO.StringO object at 0x114fa6030&gt;</div></td></tr><tr><td style="font-weight:bold;vertical-align:top;">cookies</td><td style="vertical-align:top;">:</td><td><div><table><tr><td style="font-weight:bold;vertical-align:top;">session_id_sprint1</td><td style="vertical-align:top;">:</td><td><div>127.0.0.1-aa1ed8c2-b6ee-402c-b9db-e5e6c9df1ec4<table><tr><td style="font-weight:bold;vertical-align:top;">comment</td><td style="vertical-align:top;">:</td><td><div></div></td></tr><tr><td style="font-weight:bold;vertical-align:top;">domain</td><td style="vertical-align:top;">:</td><td><div></div></td></tr><tr><td style="font-weight:bold;vertical-align:top;">expires</td><td style="vertical-align:top;">:</td><td><div></div></td></tr><tr><td style="font-weight:bold;vertical-align:top;">httponly</td><td style="vertical-align:top;">:</td><td><div></div></td></tr><tr><td style="font-weight:bold;vertical-align:top;">max-age</td><td style="vertical-align:top;">:</td><td><div></div></td></tr><tr><td style="font-weight:bold;vertical-align:top;">path</td><td style="vertical-align:top;">:</td><td><div>/</div></td></tr><tr><td style="font-weight:bold;vertical-align:top;">secure</td><td style="vertical-align:top;">:</td><td><div></div></td></tr><tr><td style="font-weight:bold;vertical-align:top;">version</td><td style="vertical-align:top;">:</td><td><div></div></td></tr></table></div></td></tr></table></div></td></tr><tr><td style="font-weight:bold;vertical-align:top;">delimiters</td><td style="vertical-align:top;">:</td><td><div><table><tr><td><div>{{</div></td></tr><tr><td><div>}}</div></td></tr></table></div></td></tr><tr><td style="font-weight:bold;vertical-align:top;">files</td><td style="vertical-align:top;">:</td><td><div><table><tr><td><div>/Sprint1/static/js/jquery.js</div></td></tr><tr><td><div>/Sprint1/static/css/calendar.css</div></td></tr><tr><td><div>/Sprint1/static/js/calendar.js</div></td></tr><tr><td><div>/Sprint1/static/js/web2py.js</div></td></tr><tr><td><div>/Sprint1/static/plugin_layouts/layouts/Settings/default.css</div></td></tr><tr><td><div>/Sprint1/static/plugin_layouts/superfish.js</div></td></tr></table></div></td></tr><tr><td style="font-weight:bold;vertical-align:top;">flash</td><td style="vertical-align:top;">:</td><td><div></div></td></tr><tr><td style="font-weight:bold;vertical-align:top;">form_label_separator</td><td style="vertical-align:top;">:</td><td><div>: </div></td></tr><tr><td style="font-weight:bold;vertical-align:top;">formstyle</td><td style="vertical-align:top;">:</td><td><div>table3cols</div></td></tr><tr><td style="font-weight:bold;vertical-align:top;">generic_patterns</td><td style="vertical-align:top;">:</td><td><div><table><tr><td><div>*</div></td></tr></table></div></td></tr><tr><td style="font-weight:bold;vertical-align:top;">google_analytics_id</td><td style="vertical-align:top;">:</td><td><div>None</div></td></tr><tr><td style="font-weight:bold;vertical-align:top;">headers</td><td style="vertical-align:top;">:</td><td><div><table><tr><td style="font-weight:bold;vertical-align:top;">X-Powered-By</td><td style="vertical-align:top;">:</td><td><div>web2py</div></td></tr></table></div></td></tr><tr><td style="font-weight:bold;vertical-align:top;">logo</td><td style="vertical-align:top;">:</td><td><div><a class="brand" href="http://127.0.0.1:8000/Sprint1/default/index"><b>Showcase</b>&trade;</a></div></td></tr><tr><td style="font-weight:bold;vertical-align:top;">menu</td><td style="vertical-align:top;">:</td><td><div><table><tr><td><div><table><tr><td><div>Home</div></td></tr><tr><td><div>False</div></td></tr><tr><td><div>/Sprint1/default/index</div></td></tr><tr><td><div><table></table></div></td></tr></table></div></td></tr></table></div></td></tr><tr><td style="font-weight:bold;vertical-align:top;">meta</td><td style="vertical-align:top;">:</td><td><div><table><tr><td style="font-weight:bold;vertical-align:top;">author</td><td style="vertical-align:top;">:</td><td><div>Your Name &lt;you@example.com&gt;</div></td></tr><tr><td style="font-weight:bold;vertical-align:top;">description</td><td style="vertical-align:top;">:</td><td><div>a cool new app</div></td></tr><tr><td style="font-weight:bold;vertical-align:top;">generator</td><td style="vertical-align:top;">:</td><td><div>Web2py Web Framework</div></td></tr><tr><td style="font-weight:bold;vertical-align:top;">keywords</td><td style="vertical-align:top;">:</td><td><div>web2py, python, framework</div></td></tr></table></div></td></tr><tr><td style="font-weight:bold;vertical-align:top;">models_to_run</td><td style="vertical-align:top;">:</td><td><div><table><tr><td><div>^\\w+\\.py$</div></td></tr><tr><td><div>^default/\\w+\\.py$</div></td></tr><tr><td><div>^default/profile/\\w+\\.py$</div></td></tr></table></div></td></tr><tr><td style="font-weight:bold;vertical-align:top;">postprocessing</td><td style="vertical-align:top;">:</td><td><div><table></table></div></td></tr><tr><td style="font-weight:bold;vertical-align:top;">session_client</td><td style="vertical-align:top;">:</td><td><div>127.0.0.1</div></td></tr><tr><td style="font-weight:bold;vertical-align:top;">session_cookie_compression_level</td><td style="vertical-align:top;">:</td><td><div>None</div></td></tr><tr><td style="font-weight:bold;vertical-align:top;">session_cookie_expires</td><td style="vertical-align:top;">:</td><td><div>None</div></td></tr><tr><td style="font-weight:bold;vertical-align:top;">session_data_name</td><td style="vertical-align:top;">:</td><td><div>session_data_sprint1</div></td></tr><tr><td style="font-weight:bold;vertical-align:top;">session_file</td><td style="vertical-align:top;">:</td><td><div>&lt;open file &#x27;/Users/Sri/Documents/Showcase/applications/Sprint1/sessions/08d/14b/127.0.0.1-aa1ed8c2-b6ee-402c-b9db-e5e6c9df1ec4&#x27;, mode &#x27;rb+&#x27; at 0x112754930&gt;</div></td></tr><tr><td style="font-weight:bold;vertical-align:top;">session_filename</td><td style="vertical-align:top;">:</td><td><div>/Users/Sri/Documents/Showcase/applications/Sprint1/sessions/127.0.0.1-aa1ed8c2-b6ee-402c-b9db-e5e6c9df1ec4</div></td></tr><tr><td style="font-weight:bold;vertical-align:top;">session_hash</td><td style="vertical-align:top;">:</td><td><div>71d4a7e58ce71282563487ed0ad5606f</div></td></tr><tr><td style="font-weight:bold;vertical-align:top;">session_id</td><td style="vertical-align:top;">:</td><td><div>127.0.0.1-aa1ed8c2-b6ee-402c-b9db-e5e6c9df1ec4</div></td></tr><tr><td style="font-weight:bold;vertical-align:top;">session_id_name</td><td style="vertical-align:top;">:</td><td><div>session_id_sprint1</div></td></tr><tr><td style="font-weight:bold;vertical-align:top;">session_locked</td><td style="vertical-align:top;">:</td><td><div>True</div></td></tr><tr><td style="font-weight:bold;vertical-align:top;">session_masterapp</td><td style="vertical-align:top;">:</td><td><div>Sprint1</div></td></tr><tr><td style="font-weight:bold;vertical-align:top;">session_new</td><td style="vertical-align:top;">:</td><td><div>False</div></td></tr><tr><td style="font-weight:bold;vertical-align:top;">session_storage_type</td><td style="vertical-align:top;">:</td><td><div>file</div></td></tr><tr><td style="font-weight:bold;vertical-align:top;">status</td><td style="vertical-align:top;">:</td><td><div>200</div></td></tr><tr><td style="font-weight:bold;vertical-align:top;">subtitle</td><td style="vertical-align:top;">:</td><td><div></div></td></tr><tr><td style="font-weight:bold;vertical-align:top;">title</td><td style="vertical-align:top;">:</td><td><div>Sprint1</div></td></tr><tr><td style="font-weight:bold;vertical-align:top;">view</td><td style="vertical-align:top;">:</td><td><div>default/profile.html</div></td></tr></table></div>'
tRp268
sS'locals'
p269
(dp270
S'a'
S"('SELECT  post.id, post.project_id, post.body, pos...ed_by FROM post ORDER BY project.created_on DESC;',)"
p271
sS'self'
p272
S'<pydal.adapters.sqlite.SQLiteAdapter object>'
p273
sS'b'
g21
sS'command'
p274
S"'SELECT  post.id, post.project_id, post.body, pos...ed_by FROM post ORDER BY project.created_on DESC;'"
p275
sS't0'
p276
S'1489725370.435423'
p277
sssS'traceback'
p278
S'Traceback (most recent call last):\n  File "/Users/Sri/Documents/Showcase/gluon/restricted.py", line 227, in restricted\n    exec ccode in environment\n  File "/Users/Sri/Documents/Showcase/applications/Sprint1/views/default/profile.html", line 56, in <module>\n  File "/Users/Sri/Documents/Showcase/gluon/packages/dal/pydal/objects.py", line 2020, in select\n    return adapter.select(self.query, fields, attributes)\n  File "/Users/Sri/Documents/Showcase/gluon/packages/dal/pydal/adapters/sqlite.py", line 123, in select\n    return super(SQLiteAdapter, self).select(query, fields, attributes)\n  File "/Users/Sri/Documents/Showcase/gluon/packages/dal/pydal/adapters/base.py", line 1296, in select\n    return self._select_aux(sql,fields,attributes)\n  File "/Users/Sri/Documents/Showcase/gluon/packages/dal/pydal/adapters/base.py", line 1253, in _select_aux\n    self.execute(sql)\n  File "/Users/Sri/Documents/Showcase/gluon/packages/dal/pydal/adapters/base.py", line 1388, in execute\n    return self.log_execute(*a, **b)\n  File "/Users/Sri/Documents/Showcase/gluon/packages/dal/pydal/adapters/base.py", line 1382, in log_execute\n    ret = self.get_cursor().execute(command, *a[1:], **b)\nOperationalError: no such column: project.created_on\n'
p279
s.