(dp1
S'output'
p2
S"<type 'exceptions.IOError'> [Errno 13] Permission denied"
p3
sS'layer'
p4
S'C:\\cygwin64\\home\\eronj\\Showcase\\applications\\Showcase0_1\\models\\db.py'
p5
sS'code'
p6
S'#OMG THIS IS A COMMMENT\nimport datetime\n\ndb = DAL(\'sqlite://storage.sqlite\')\n\n#auth\nfrom gluon.tools import *\nauth = Auth(db)\nauth.define_tables()\ncrud = Crud(db)\n\ndb.define_table(\'profile\',\n                Field(\'user_id\', \'reference auth_user\', default=auth.user_id),\n                Field(\'profilepic\', \'upload\'),\n                )\n\n#database for projects\ndb.define_table(\'project\',\n                Field(\'profile_id\', \'reference profile\'),\n                Field(\'title\'),\n                Field(\'body\', \'text\'),\n                Field(\'image\', \'upload\'),\n                Field(\'category\'),\n                Field(\'Youtube_Embed_Link\'),\n                Field(\'Vimeo_Embed_Link\'),\n                Field(\'created_on\', \'datetime\', default=datetime.datetime.utcnow()),\n                Field(\'created_by\', \'reference auth_user\', default=auth.user_id),\n                format=\'%(title)s\')\n\n#db for documents on each project\ndb.define_table(\'document\',\n                Field(\'project_id\', \'reference project\'),\n                Field(\'name\'),\n                Field(\'body\', \'text\'),\n                Field(\'file\', \'upload\'),\n                Field(\'Youtube_Embed_Link\'),\n                Field(\'Vimeo_Embed_Link\'),\n                Field(\'created_on\', \'datetime\', default=request.now),\n                Field(\'created_by\', \'reference auth_user\', default=auth.user_id),\n                format=\'%(name)s\')\n\n#db for posts on each project\ndb.define_table(\'post\',\n                Field(\'document_id\', \'reference document\'),\n                Field(\'body\', \'text\'),\n                Field(\'created_on\', \'datetime\', default=request.now),\n                Field(\'created_by\', \'reference auth_user\', default=auth.user_id))\n\n\ndb.define_table(\'collaborators\',\n                Field(\'project_id\', \'reference project\'),\n                Field(\'user_id\', \'reference auth_user\', default=auth.user_id))\n\ndb.define_table(\'following\',\n               Field(\'project_id\', \'reference project\'),\n               Field(\'user_id\', \'reference auth_user\', default=auth.user_id))\n\n#project validators\ndb.project.title.requires = IS_NOT_IN_DB(db, \'project.title\')\ndb.project.body.requires = IS_NOT_EMPTY()\ndb.project.profile_id.readable = db.project.profile_id.writable = False\ndb.project.created_by.readable = db.project.created_by.writable = False\ndb.project.id.readable = False\ndb.project.created_on.readable = db.project.created_on.writable = False\ndb.project.category.requires =  IS_IN_SET(["Software", "Hardware", "Music","Video", "Game", "Product", "Event", "Misc."])\n\ndb.post.body.requires = IS_NOT_EMPTY()\ndb.post.document_id.readable = db.post.document_id.writable = False\ndb.post.created_by.readable = db.post.created_by.writable = False\ndb.post.created_on.readable = db.post.created_on.writable = False\n\ndb.document.name.requires = IS_NOT_IN_DB(db, \'document.name\')\ndb.document.project_id.readable = db.document.project_id.writable = False\ndb.document.created_by.readable = db.document.created_by.writable = False\ndb.document.created_on.readable = db.document.created_on.writable = False\n'
p7
sS'snapshot'
p8
(dp9
S'exception'
p10
(dp11
S'__getslice__'
p12
S"<method-wrapper '__getslice__' of exceptions.IOError object>"
p13
sS'__str__'
p14
S"<method-wrapper '__str__' of exceptions.IOError object>"
p15
sS'__reduce__'
p16
S'<built-in method __reduce__ of exceptions.IOError object>'
p17
sS'__dict__'
p18
S'{}'
p19
sS'__sizeof__'
p20
S'<built-in method __sizeof__ of exceptions.IOError object>'
p21
sS'__init__'
p22
S"<method-wrapper '__init__' of exceptions.IOError object>"
p23
sS'__setattr__'
p24
S"<method-wrapper '__setattr__' of exceptions.IOError object>"
p25
sS'__reduce_ex__'
p26
S'<built-in method __reduce_ex__ of exceptions.IOError object>'
p27
sS'__new__'
p28
S'<built-in method __new__ of type object>'
p29
sS'errno'
p30
S'13'
p31
sS'__format__'
p32
S'<built-in method __format__ of exceptions.IOError object>'
p33
sS'__class__'
p34
S"<type 'exceptions.IOError'>"
p35
sS'filename'
p36
S'None'
p37
sS'__doc__'
p38
S"'I/O operation failed.'"
p39
sS'__getitem__'
p40
S"<method-wrapper '__getitem__' of exceptions.IOError object>"
p41
sS'__setstate__'
p42
S'<built-in method __setstate__ of exceptions.IOError object>'
p43
sS'__getattribute__'
p44
S"<method-wrapper '__getattribute__' of exceptions.IOError object>"
p45
sS'args'
p46
S"(13, 'Permission denied')"
p47
sS'__subclasshook__'
p48
S'<built-in method __subclasshook__ of type object>'
p49
sS'__unicode__'
p50
S'<built-in method __unicode__ of exceptions.IOError object>'
p51
sS'strerror'
p52
S"'Permission denied'"
p53
sS'__delattr__'
p54
S"<method-wrapper '__delattr__' of exceptions.IOError object>"
p55
sS'__repr__'
p56
S"<method-wrapper '__repr__' of exceptions.IOError object>"
p57
sS'__hash__'
p58
S"<method-wrapper '__hash__' of exceptions.IOError object>"
p59
ssS'evalue'
p60
S'[Errno 13] Permission denied'
p61
sS'request'
p62
cgluon.html
XML_unpickle
p63
(S's\xd2\x9d\x00\x00<div><table><tr><td style="font-weight:bold;vertical-align:top;">ajax</td><td style="vertical-align:top;">:</td><td><div>False</div></td></tr><tr><td style="font-weight:bold;vertical-align:top;">application</td><td style="vertical-align:top;">:</td><td><div>Showcase0_1</div></td></tr><tr><td style="font-weight:bold;vertical-align:top;">args</td><td style="vertical-align:top;">:</td><td><div><table></table></div></td></tr><tr><td style="font-weight:bold;vertical-align:top;">cid</td><td style="vertical-align:top;">:</td><td><div>None</div></td></tr><tr><td style="font-weight:bold;vertical-align:top;">client</td><td style="vertical-align:top;">:</td><td><div>127.0.0.1</div></td></tr><tr><td style="font-weight:bold;vertical-align:top;">controller</td><td style="vertical-align:top;">:</td><td><div>default</div></td></tr><tr><td style="font-weight:bold;vertical-align:top;">cookies</td><td style="vertical-align:top;">:</td><td><div><table><tr><td style="font-weight:bold;vertical-align:top;">session_id_admin</td><td style="vertical-align:top;">:</td><td><div>127.0.0.1-c7c58ab9-3073-4339-925f-2c8b76768e83<table><tr><td style="font-weight:bold;vertical-align:top;">comment</td><td style="vertical-align:top;">:</td><td><div></div></td></tr><tr><td style="font-weight:bold;vertical-align:top;">domain</td><td style="vertical-align:top;">:</td><td><div></div></td></tr><tr><td style="font-weight:bold;vertical-align:top;">expires</td><td style="vertical-align:top;">:</td><td><div></div></td></tr><tr><td style="font-weight:bold;vertical-align:top;">httponly</td><td style="vertical-align:top;">:</td><td><div></div></td></tr><tr><td style="font-weight:bold;vertical-align:top;">max-age</td><td style="vertical-align:top;">:</td><td><div></div></td></tr><tr><td style="font-weight:bold;vertical-align:top;">path</td><td style="vertical-align:top;">:</td><td><div></div></td></tr><tr><td style="font-weight:bold;vertical-align:top;">secure</td><td style="vertical-align:top;">:</td><td><div></div></td></tr><tr><td style="font-weight:bold;vertical-align:top;">version</td><td style="vertical-align:top;">:</td><td><div></div></td></tr></table></div></td></tr><tr><td style="font-weight:bold;vertical-align:top;">session_id_ajax</td><td style="vertical-align:top;">:</td><td><div>127.0.0.1-d0272cde-bcd5-42db-80b3-89924ac9a660<table><tr><td style="font-weight:bold;vertical-align:top;">comment</td><td style="vertical-align:top;">:</td><td><div></div></td></tr><tr><td style="font-weight:bold;vertical-align:top;">domain</td><td style="vertical-align:top;">:</td><td><div></div></td></tr><tr><td style="font-weight:bold;vertical-align:top;">expires</td><td style="vertical-align:top;">:</td><td><div></div></td></tr><tr><td style="font-weight:bold;vertical-align:top;">httponly</td><td style="vertical-align:top;">:</td><td><div></div></td></tr><tr><td style="font-weight:bold;vertical-align:top;">max-age</td><td style="vertical-align:top;">:</td><td><div></div></td></tr><tr><td style="font-weight:bold;vertical-align:top;">path</td><td style="vertical-align:top;">:</td><td><div></div></td></tr><tr><td style="font-weight:bold;vertical-align:top;">secure</td><td style="vertical-align:top;">:</td><td><div></div></td></tr><tr><td style="font-weight:bold;vertical-align:top;">version</td><td style="vertical-align:top;">:</td><td><div></div></td></tr></table></div></td></tr><tr><td style="font-weight:bold;vertical-align:top;">session_id_ajax_help</td><td style="vertical-align:top;">:</td><td><div>127.0.0.1-f87a865d-820b-4b04-9c88-acccdfcf4482<table><tr><td style="font-weight:bold;vertical-align:top;">comment</td><td style="vertical-align:top;">:</td><td><div></div></td></tr><tr><td style="font-weight:bold;vertical-align:top;">domain</td><td style="vertical-align:top;">:</td><td><div></div></td></tr><tr><td style="font-weight:bold;vertical-align:top;">expires</td><td style="vertical-align:top;">:</td><td><div></div></td></tr><tr><td style="font-weight:bold;vertical-align:top;">httponly</td><td style="vertical-align:top;">:</td><td><div></div></td></tr><tr><td style="font-weight:bold;vertical-align:top;">max-age</td><td style="vertical-align:top;">:</td><td><div></div></td></tr><tr><td style="font-weight:bold;vertical-align:top;">path</td><td style="vertical-align:top;">:</td><td><div></div></td></tr><tr><td style="font-weight:bold;vertical-align:top;">secure</td><td style="vertical-align:top;">:</td><td><div></div></td></tr><tr><td style="font-weight:bold;vertical-align:top;">version</td><td style="vertical-align:top;">:</td><td><div></div></td></tr></table></div></td></tr><tr><td style="font-weight:bold;vertical-align:top;">session_id_ajax_help_2</td><td style="vertical-align:top;">:</td><td><div>127.0.0.1-08302c5a-571a-4f7a-9f9a-992072d8c805<table><tr><td style="font-weight:bold;vertical-align:top;">comment</td><td style="vertical-align:top;">:</td><td><div></div></td></tr><tr><td style="font-weight:bold;vertical-align:top;">domain</td><td style="vertical-align:top;">:</td><td><div></div></td></tr><tr><td style="font-weight:bold;vertical-align:top;">expires</td><td style="vertical-align:top;">:</td><td><div></div></td></tr><tr><td style="font-weight:bold;vertical-align:top;">httponly</td><td style="vertical-align:top;">:</td><td><div></div></td></tr><tr><td style="font-weight:bold;vertical-align:top;">max-age</td><td style="vertical-align:top;">:</td><td><div></div></td></tr><tr><td style="font-weight:bold;vertical-align:top;">path</td><td style="vertical-align:top;">:</td><td><div></div></td></tr><tr><td style="font-weight:bold;vertical-align:top;">secure</td><td style="vertical-align:top;">:</td><td><div></div></td></tr><tr><td style="font-weight:bold;vertical-align:top;">version</td><td style="vertical-align:top;">:</td><td><div></div></td></tr></table></div></td></tr><tr><td style="font-weight:bold;vertical-align:top;">session_id_asgn2</td><td style="vertical-align:top;">:</td><td><div>127.0.0.1-550e2bd6-b00a-4974-a4e2-850fb71b4b5b<table><tr><td style="font-weight:bold;vertical-align:top;">comment</td><td style="vertical-align:top;">:</td><td><div></div></td></tr><tr><td style="font-weight:bold;vertical-align:top;">domain</td><td style="vertical-align:top;">:</td><td><div></div></td></tr><tr><td style="font-weight:bold;vertical-align:top;">expires</td><td style="vertical-align:top;">:</td><td><div></div></td></tr><tr><td style="font-weight:bold;vertical-align:top;">httponly</td><td style="vertical-align:top;">:</td><td><div></div></td></tr><tr><td style="font-weight:bold;vertical-align:top;">max-age</td><td style="vertical-align:top;">:</td><td><div></div></td></tr><tr><td style="font-weight:bold;vertical-align:top;">path</td><td style="vertical-align:top;">:</td><td><div></div></td></tr><tr><td style="font-weight:bold;vertical-align:top;">secure</td><td style="vertical-align:top;">:</td><td><div></div></td></tr><tr><td style="font-weight:bold;vertical-align:top;">version</td><td style="vertical-align:top;">:</td><td><div></div></td></tr></table></div></td></tr><tr><td style="font-weight:bold;vertical-align:top;">session_id_asgn4</td><td style="vertical-align:top;">:</td><td><div>127.0.0.1-60111747-488a-4597-8710-b5635d7b9895<table><tr><td style="font-weight:bold;vertical-align:top;">comment</td><td style="vertical-align:top;">:</td><td><div></div></td></tr><tr><td style="font-weight:bold;vertical-align:top;">domain</td><td style="vertical-align:top;">:</td><td><div></div></td></tr><tr><td style="font-weight:bold;vertical-align:top;">expires</td><td style="vertical-align:top;">:</td><td><div></div></td></tr><tr><td style="font-weight:bold;vertical-align:top;">httponly</td><td style="vertical-align:top;">:</td><td><div></div></td></tr><tr><td style="font-weight:bold;vertical-align:top;">max-age</td><td style="vertical-align:top;">:</td><td><div></div></td></tr><tr><td style="font-weight:bold;vertical-align:top;">path</td><td style="vertical-align:top;">:</td><td><div></div></td></tr><tr><td style="font-weight:bold;vertical-align:top;">secure</td><td style="vertical-align:top;">:</td><td><div></div></td></tr><tr><td style="font-weight:bold;vertical-align:top;">version</td><td style="vertical-align:top;">:</td><td><div></div></td></tr></table></div></td></tr><tr><td style="font-weight:bold;vertical-align:top;">session_id_images</td><td style="vertical-align:top;">:</td><td><div>127.0.0.1-2b3233e0-6f5c-42a3-b354-732968596aa5<table><tr><td style="font-weight:bold;vertical-align:top;">comment</td><td style="vertical-align:top;">:</td><td><div></div></td></tr><tr><td style="font-weight:bold;vertical-align:top;">domain</td><td style="vertical-align:top;">:</td><td><div></div></td></tr><tr><td style="font-weight:bold;vertical-align:top;">expires</td><td style="vertical-align:top;">:</td><td><div></div></td></tr><tr><td style="font-weight:bold;vertical-align:top;">httponly</td><td style="vertical-align:top;">:</td><td><div></div></td></tr><tr><td style="font-weight:bold;vertical-align:top;">max-age</td><td style="vertical-align:top;">:</td><td><div></div></td></tr><tr><td style="font-weight:bold;vertical-align:top;">path</td><td style="vertical-align:top;">:</td><td><div></div></td></tr><tr><td style="font-weight:bold;vertical-align:top;">secure</td><td style="vertical-align:top;">:</td><td><div></div></td></tr><tr><td style="font-weight:bold;vertical-align:top;">version</td><td style="vertical-align:top;">:</td><td><div></div></td></tr></table></div></td></tr><tr><td style="font-weight:bold;vertical-align:top;">session_id_kennethpush</td><td style="vertical-align:top;">:</td><td><div>127.0.0.1-6e8a4e91-947f-4c27-9f81-6e833d367e08<table><tr><td style="font-weight:bold;vertical-align:top;">comment</td><td style="vertical-align:top;">:</td><td><div></div></td></tr><tr><td style="font-weight:bold;vertical-align:top;">domain</td><td style="vertical-align:top;">:</td><td><div></div></td></tr><tr><td style="font-weight:bold;vertical-align:top;">expires</td><td style="vertical-align:top;">:</td><td><div></div></td></tr><tr><td style="font-weight:bold;vertical-align:top;">httponly</td><td style="vertical-align:top;">:</td><td><div></div></td></tr><tr><td style="font-weight:bold;vertical-align:top;">max-age</td><td style="vertical-align:top;">:</td><td><div></div></td></tr><tr><td style="font-weight:bold;vertical-align:top;">path</td><td style="vertical-align:top;">:</td><td><div></div></td></tr><tr><td style="font-weight:bold;vertical-align:top;">secure</td><td style="vertical-align:top;">:</td><td><div></div></td></tr><tr><td style="font-weight:bold;vertical-align:top;">version</td><td style="vertical-align:top;">:</td><td><div></div></td></tr></table></div></td></tr><tr><td style="font-weight:bold;vertical-align:top;">session_id_kennethpush2</td><td style="vertical-align:top;">:</td><td><div>127.0.0.1-323bae0f-c2c8-4944-b19a-b402643df168<table><tr><td style="font-weight:bold;vertical-align:top;">comment</td><td style="vertical-align:top;">:</td><td><div></div></td></tr><tr><td style="font-weight:bold;vertical-align:top;">domain</td><td style="vertical-align:top;">:</td><td><div></div></td></tr><tr><td style="font-weight:bold;vertical-align:top;">expires</td><td style="vertical-align:top;">:</td><td><div></div></td></tr><tr><td style="font-weight:bold;vertical-align:top;">httponly</td><td style="vertical-align:top;">:</td><td><div></div></td></tr><tr><td style="font-weight:bold;vertical-align:top;">max-age</td><td style="vertical-align:top;">:</td><td><div></div></td></tr><tr><td style="font-weight:bold;vertical-align:top;">path</td><td style="vertical-align:top;">:</td><td><div></div></td></tr><tr><td style="font-weight:bold;vertical-align:top;">secure</td><td style="vertical-align:top;">:</td><td><div></div></td></tr><tr><td style="font-weight:bold;vertical-align:top;">version</td><td style="vertical-align:top;">:</td><td><div></div></td></tr></table></div></td></tr><tr><td style="font-weight:bold;vertical-align:top;">session_id_release1_0</td><td style="vertical-align:top;">:</td><td><div>127.0.0.1-f6ab2f55-ea53-47b0-b18f-94cee2ac3404<table><tr><td style="font-weight:bold;vertical-align:top;">comment</td><td style="vertical-align:top;">:</td><td><div></div></td></tr><tr><td style="font-weight:bold;vertical-align:top;">domain</td><td style="vertical-align:top;">:</td><td><div></div></td></tr><tr><td style="font-weight:bold;vertical-align:top;">expires</td><td style="vertical-align:top;">:</td><td><div></div></td></tr><tr><td style="font-weight:bold;vertical-align:top;">httponly</td><td style="vertical-align:top;">:</td><td><div></div></td></tr><tr><td style="font-weight:bold;vertical-align:top;">max-age</td><td style="vertical-align:top;">:</td><td><div></div></td></tr><tr><td style="font-weight:bold;vertical-align:top;">path</td><td style="vertical-align:top;">:</td><td><div></div></td></tr><tr><td style="font-weight:bold;vertical-align:top;">secure</td><td style="vertical-align:top;">:</td><td><div></div></td></tr><tr><td style="font-weight:bold;vertical-align:top;">version</td><td style="vertical-align:top;">:</td><td><div></div></td></tr></table></div></td></tr><tr><td style="font-weight:bold;vertical-align:top;">session_id_showcase0_1</td><td style="vertical-align:top;">:</td><td><div>127.0.0.1-c44e0d70-e887-412c-829e-0bf6c4011126<table><tr><td style="font-weight:bold;vertical-align:top;">comment</td><td style="vertical-align:top;">:</td><td><div></div></td></tr><tr><td style="font-weight:bold;vertical-align:top;">domain</td><td style="vertical-align:top;">:</td><td><div></div></td></tr><tr><td style="font-weight:bold;vertical-align:top;">expires</td><td style="vertical-align:top;">:</td><td><div></div></td></tr><tr><td style="font-weight:bold;vertical-align:top;">httponly</td><td style="vertical-align:top;">:</td><td><div></div></td></tr><tr><td style="font-weight:bold;vertical-align:top;">max-age</td><td style="vertical-align:top;">:</td><td><div></div></td></tr><tr><td style="font-weight:bold;vertical-align:top;">path</td><td style="vertical-align:top;">:</td><td><div></div></td></tr><tr><td style="font-weight:bold;vertical-align:top;">secure</td><td style="vertical-align:top;">:</td><td><div></div></td></tr><tr><td style="font-weight:bold;vertical-align:top;">version</td><td style="vertical-align:top;">:</td><td><div></div></td></tr></table></div></td></tr><tr><td style="font-weight:bold;vertical-align:top;">session_id_sprint1</td><td style="vertical-align:top;">:</td><td><div>127.0.0.1-ffbba241-062a-48e3-a812-0d3ead244f5b<table><tr><td style="font-weight:bold;vertical-align:top;">comment</td><td style="vertical-align:top;">:</td><td><div></div></td></tr><tr><td style="font-weight:bold;vertical-align:top;">domain</td><td style="vertical-align:top;">:</td><td><div></div></td></tr><tr><td style="font-weight:bold;vertical-align:top;">expires</td><td style="vertical-align:top;">:</td><td><div></div></td></tr><tr><td style="font-weight:bold;vertical-align:top;">httponly</td><td style="vertical-align:top;">:</td><td><div></div></td></tr><tr><td style="font-weight:bold;vertical-align:top;">max-age</td><td style="vertical-align:top;">:</td><td><div></div></td></tr><tr><td style="font-weight:bold;vertical-align:top;">path</td><td style="vertical-align:top;">:</td><td><div></div></td></tr><tr><td style="font-weight:bold;vertical-align:top;">secure</td><td style="vertical-align:top;">:</td><td><div></div></td></tr><tr><td style="font-weight:bold;vertical-align:top;">version</td><td style="vertical-align:top;">:</td><td><div></div></td></tr></table></div></td></tr><tr><td style="font-weight:bold;vertical-align:top;">session_id_sprint4</td><td style="vertical-align:top;">:</td><td><div>127.0.0.1-b8ba05f1-1080-4444-904f-fe737c801d09<table><tr><td style="font-weight:bold;vertical-align:top;">comment</td><td style="vertical-align:top;">:</td><td><div></div></td></tr><tr><td style="font-weight:bold;vertical-align:top;">domain</td><td style="vertical-align:top;">:</td><td><div></div></td></tr><tr><td style="font-weight:bold;vertical-align:top;">expires</td><td style="vertical-align:top;">:</td><td><div></div></td></tr><tr><td style="font-weight:bold;vertical-align:top;">httponly</td><td style="vertical-align:top;">:</td><td><div></div></td></tr><tr><td style="font-weight:bold;vertical-align:top;">max-age</td><td style="vertical-align:top;">:</td><td><div></div></td></tr><tr><td style="font-weight:bold;vertical-align:top;">path</td><td style="vertical-align:top;">:</td><td><div></div></td></tr><tr><td style="font-weight:bold;vertical-align:top;">secure</td><td style="vertical-align:top;">:</td><td><div></div></td></tr><tr><td style="font-weight:bold;vertical-align:top;">version</td><td style="vertical-align:top;">:</td><td><div></div></td></tr></table></div></td></tr><tr><td style="font-weight:bold;vertical-align:top;">session_id_test_sub_4</td><td style="vertical-align:top;">:</td><td><div>127.0.0.1-0a80429f-41ca-43f4-aadc-ae2cb910174f<table><tr><td style="font-weight:bold;vertical-align:top;">comment</td><td style="vertical-align:top;">:</td><td><div></div></td></tr><tr><td style="font-weight:bold;vertical-align:top;">domain</td><td style="vertical-align:top;">:</td><td><div></div></td></tr><tr><td style="font-weight:bold;vertical-align:top;">expires</td><td style="vertical-align:top;">:</td><td><div></div></td></tr><tr><td style="font-weight:bold;vertical-align:top;">httponly</td><td style="vertical-align:top;">:</td><td><div></div></td></tr><tr><td style="font-weight:bold;vertical-align:top;">max-age</td><td style="vertical-align:top;">:</td><td><div></div></td></tr><tr><td style="font-weight:bold;vertical-align:top;">path</td><td style="vertical-align:top;">:</td><td><div></div></td></tr><tr><td style="font-weight:bold;vertical-align:top;">secure</td><td style="vertical-align:top;">:</td><td><div></div></td></tr><tr><td style="font-weight:bold;vertical-align:top;">version</td><td style="vertical-align:top;">:</td><td><div></div></td></tr></table></div></td></tr><tr><td style="font-weight:bold;vertical-align:top;">session_id_welcome</td><td style="vertical-align:top;">:</td><td><div>127.0.0.1-dd43082e-e8a1-4e5a-a57c-ba2c2ebe22e5<table><tr><td style="font-weight:bold;vertical-align:top;">comment</td><td style="vertical-align:top;">:</td><td><div></div></td></tr><tr><td style="font-weight:bold;vertical-align:top;">domain</td><td style="vertical-align:top;">:</td><td><div></div></td></tr><tr><td style="font-weight:bold;vertical-align:top;">expires</td><td style="vertical-align:top;">:</td><td><div></div></td></tr><tr><td style="font-weight:bold;vertical-align:top;">httponly</td><td style="vertical-align:top;">:</td><td><div></div></td></tr><tr><td style="font-weight:bold;vertical-align:top;">max-age</td><td style="vertical-align:top;">:</td><td><div></div></td></tr><tr><td style="font-weight:bold;vertical-align:top;">path</td><td style="vertical-align:top;">:</td><td><div></div></td></tr><tr><td style="font-weight:bold;vertical-align:top;">secure</td><td style="vertical-align:top;">:</td><td><div></div></td></tr><tr><td style="font-weight:bold;vertical-align:top;">version</td><td style="vertical-align:top;">:</td><td><div></div></td></tr></table></div></td></tr></table></div></td></tr><tr><td style="font-weight:bold;vertical-align:top;">env</td><td style="vertical-align:top;">:</td><td><div><table><tr><td style="font-weight:bold;vertical-align:top;">HTTP_ACCEPT</td><td style="vertical-align:top;">:</td><td><div>text/html,application/xhtml+xml,application/xml;q=0.9,image/webp,*/*;q=0.8</div></td></tr><tr><td style="font-weight:bold;vertical-align:top;">HTTP_ACCEPT_ENCODING</td><td style="vertical-align:top;">:</td><td><div>gzip, deflate, sdch, br</div></td></tr><tr><td style="font-weight:bold;vertical-align:top;">HTTP_ACCEPT_LANGUAGE</td><td style="vertical-align:top;">:</td><td><div>en-US,en;q=0.8</div></td></tr><tr><td style="font-weight:bold;vertical-align:top;">HTTP_CACHE_CONTROL</td><td style="vertical-align:top;">:</td><td><div>max-age=0</div></td></tr><tr><td style="font-weight:bold;vertical-align:top;">HTTP_CONNECTION</td><td style="vertical-align:top;">:</td><td><div>keep-alive</div></td></tr><tr><td style="font-weight:bold;vertical-align:top;">HTTP_COOKIE</td><td style="vertical-align:top;">:</td><td><div>session_id_asgn2=127.0.0.1-550e2bd6-b00a-4974-a4e2-850fb71b4b5b; session_id_ajax=127.0.0.1-d0272cde-bcd5-42db-80b3-89924ac9a660; session_id_kennethpush=127.0.0.1-6e8a4e91-947f-4c27-9f81-6e833d367e08; session_id_sprint4=127.0.0.1-b8ba05f1-1080-4444-904f-fe737c801d09; session_id_images=127.0.0.1-2b3233e0-6f5c-42a3-b354-732968596aa5; session_id_asgn4=127.0.0.1-60111747-488a-4597-8710-b5635d7b9895; session_id_test_sub_4=127.0.0.1-0a80429f-41ca-43f4-aadc-ae2cb910174f; session_id_ajax_help=127.0.0.1-f87a865d-820b-4b04-9c88-acccdfcf4482; session_id_sprint1=127.0.0.1-ffbba241-062a-48e3-a812-0d3ead244f5b; session_id_kennethpush2=127.0.0.1-323bae0f-c2c8-4944-b19a-b402643df168; session_id_ajax_help_2=127.0.0.1-08302c5a-571a-4f7a-9f9a-992072d8c805; session_id_release1_0=127.0.0.1-f6ab2f55-ea53-47b0-b18f-94cee2ac3404; session_id_welcome=127.0.0.1-dd43082e-e8a1-4e5a-a57c-ba2c2ebe22e5; session_id_showcase0_1=127.0.0.1-c44e0d70-e887-412c-829e-0bf6c4011126; session_id_admin=127.0.0.1-c7c58ab9-3073-4339-925f-2c8b76768e83</div></td></tr><tr><td style="font-weight:bold;vertical-align:top;">HTTP_HOST</td><td style="vertical-align:top;">:</td><td><div>localhost:8000</div></td></tr><tr><td style="font-weight:bold;vertical-align:top;">HTTP_REFERER</td><td style="vertical-align:top;">:</td><td><div>http://localhost:8000/Showcase0_1/default/createProject</div></td></tr><tr><td style="font-weight:bold;vertical-align:top;">HTTP_UPGRADE_INSECURE_REQUESTS</td><td style="vertical-align:top;">:</td><td><div>1</div></td></tr><tr><td style="font-weight:bold;vertical-align:top;">HTTP_USER_AGENT</td><td style="vertical-align:top;">:</td><td><div>Mozilla/5.0 (Windows NT 10.0; Win64; x64) AppleWebKit/537.36 (KHTML, like Gecko) Chrome/56.0.2924.87 Safari/537.36</div></td></tr><tr><td style="font-weight:bold;vertical-align:top;">PATH_INFO</td><td style="vertical-align:top;">:</td><td><div>/Showcase0_1/default/profile</div></td></tr><tr><td style="font-weight:bold;vertical-align:top;">QUERY_STRING</td><td style="vertical-align:top;">:</td><td><div></div></td></tr><tr><td style="font-weight:bold;vertical-align:top;">REMOTE_ADDR</td><td style="vertical-align:top;">:</td><td><div>127.0.0.1</div></td></tr><tr><td style="font-weight:bold;vertical-align:top;">REMOTE_PORT</td><td style="vertical-align:top;">:</td><td><div>56406</div></td></tr><tr><td style="font-weight:bold;vertical-align:top;">REQUEST_METHOD</td><td style="vertical-align:top;">:</td><td><div>GET</div></td></tr><tr><td style="font-weight:bold;vertical-align:top;">SCRIPT_NAME</td><td style="vertical-align:top;">:</td><td><div></div></td></tr><tr><td style="font-weight:bold;vertical-align:top;">SERVER_NAME</td><td style="vertical-align:top;">:</td><td><div>DESKTOP-QSSV5U6</div></td></tr><tr><td style="font-weight:bold;vertical-align:top;">SERVER_PORT</td><td style="vertical-align:top;">:</td><td><div>8000</div></td></tr><tr><td style="font-weight:bold;vertical-align:top;">SERVER_PROTOCOL</td><td style="vertical-align:top;">:</td><td><div>HTTP/1.1</div></td></tr><tr><td style="font-weight:bold;vertical-align:top;">SERVER_SOFTWARE</td><td style="vertical-align:top;">:</td><td><div>Rocket 1.2.6</div></td></tr><tr><td style="font-weight:bold;vertical-align:top;">app_folders</td><td style="vertical-align:top;">:</td><td><div>set([&#x27;C:\\\\cygwin64\\\\home\\\\eronj\\\\Showcase\\\\applications\\\\Showcase0_1\\\\&#x27;, &#x27;C:\\\\cygwin64\\\\home\\\\eronj\\\\Showcase\\\\applications\\\\admin\\\\&#x27;])</div></td></tr><tr><td style="font-weight:bold;vertical-align:top;">applications_parent</td><td style="vertical-align:top;">:</td><td><div>C:\\cygwin64\\home\\eronj\\Showcase</div></td></tr><tr><td style="font-weight:bold;vertical-align:top;">cmd_args</td><td style="vertical-align:top;">:</td><td><div><table></table></div></td></tr><tr><td style="font-weight:bold;vertical-align:top;">cmd_options</td><td style="vertical-align:top;">:</td><td><div>&lt;Values at 0x2e491e8: {&#x27;verbose&#x27;: False, &#x27;ip&#x27;: &#x27;127.0.0.1&#x27;, &#x27;debuglevel&#x27;: 30, &#x27;with_scheduler&#x27;: False, &#x27;shutdown_timeout&#x27;: 5, &#x27;taskbar&#x27;: False, &#x27;with_coverage&#x27;: False, &#x27;pid_filename&#x27;: &#x27;httpserver.pid&#x27;, &#x27;maxthreads&#x27;: None, &#x27;softcron&#x27;: False, &#x27;server_name&#x27;: &#x27;DESKTOP-QSSV5U6&#x27;, &#x27;bpython&#x27;: False, &#x27;nogui&#x27;: False, &#x27;port&#x27;: 8000, &#x27;print_errors&#x27;: False, &#x27;extcron&#x27;: False, &#x27;runcron&#x27;: False, &#x27;run_system_tests&#x27;: False, &#x27;test&#x27;: None, &#x27;folder&#x27;: &#x27;C:\\\\cygwin64\\\\home\\\\eronj\\\\Showcase&#x27;, &#x27;config&#x27;: &#x27;&#x27;, &#x27;minthreads&#x27;: None, &#x27;shell&#x27;: None, &#x27;run&#x27;: &#x27;&#x27;, &#x27;log_filename&#x27;: &#x27;httpserver.log&#x27;, &#x27;profiler_dir&#x27;: None, &#x27;args&#x27;: [&#x27;&#x27;], &#x27;socket_timeout&#x27;: 5, &#x27;ssl_ca_certificate&#x27;: None, &#x27;scheduler&#x27;: None, &#x27;interfaces&#x27;: None, &#x27;ssl_private_key&#x27;: &#x27;&#x27;, &#x27;gae&#x27;: None, &#x27;password&#x27;: &#x27;******&#x27;, &#x27;request_queue_size&#x27;: 5, &#x27;ssl_certificate&#x27;: &#x27;&#x27;, &#x27;cronjob&#x27;: False, &#x27;numthreads&#x27;: None, &#x27;quiet&#x27;: False, &#x27;import_models&#x27;: False, &#x27;timeout&#x27;: 10, &#x27;plain&#x27;: False, &#x27;nobanner&#x27;: False}&gt;</div></td></tr><tr><td style="font-weight:bold;vertical-align:top;">db_sessions</td><td style="vertical-align:top;">:</td><td><div>set([])</div></td></tr><tr><td style="font-weight:bold;vertical-align:top;">debugging</td><td style="vertical-align:top;">:</td><td><div>True</div></td></tr><tr><td style="font-weight:bold;vertical-align:top;">gluon_parent</td><td style="vertical-align:top;">:</td><td><div>C:\\cygwin64\\home\\eronj\\Showcase</div></td></tr><tr><td style="font-weight:bold;vertical-align:top;">http_accept</td><td style="vertical-align:top;">:</td><td><div>text/html,application/xhtml+xml,application/xml;q=0.9,image/webp,*/*;q=0.8</div></td></tr><tr><td style="font-weight:bold;vertical-align:top;">http_accept_encoding</td><td style="vertical-align:top;">:</td><td><div>gzip, deflate, sdch, br</div></td></tr><tr><td style="font-weight:bold;vertical-align:top;">http_accept_language</td><td style="vertical-align:top;">:</td><td><div>en-US,en;q=0.8</div></td></tr><tr><td style="font-weight:bold;vertical-align:top;">http_cache_control</td><td style="vertical-align:top;">:</td><td><div>max-age=0</div></td></tr><tr><td style="font-weight:bold;vertical-align:top;">http_connection</td><td style="vertical-align:top;">:</td><td><div>keep-alive</div></td></tr><tr><td style="font-weight:bold;vertical-align:top;">http_cookie</td><td style="vertical-align:top;">:</td><td><div>session_id_asgn2=127.0.0.1-550e2bd6-b00a-4974-a4e2-850fb71b4b5b; session_id_ajax=127.0.0.1-d0272cde-bcd5-42db-80b3-89924ac9a660; session_id_kennethpush=127.0.0.1-6e8a4e91-947f-4c27-9f81-6e833d367e08; session_id_sprint4=127.0.0.1-b8ba05f1-1080-4444-904f-fe737c801d09; session_id_images=127.0.0.1-2b3233e0-6f5c-42a3-b354-732968596aa5; session_id_asgn4=127.0.0.1-60111747-488a-4597-8710-b5635d7b9895; session_id_test_sub_4=127.0.0.1-0a80429f-41ca-43f4-aadc-ae2cb910174f; session_id_ajax_help=127.0.0.1-f87a865d-820b-4b04-9c88-acccdfcf4482; session_id_sprint1=127.0.0.1-ffbba241-062a-48e3-a812-0d3ead244f5b; session_id_kennethpush2=127.0.0.1-323bae0f-c2c8-4944-b19a-b402643df168; session_id_ajax_help_2=127.0.0.1-08302c5a-571a-4f7a-9f9a-992072d8c805; session_id_release1_0=127.0.0.1-f6ab2f55-ea53-47b0-b18f-94cee2ac3404; session_id_welcome=127.0.0.1-dd43082e-e8a1-4e5a-a57c-ba2c2ebe22e5; session_id_showcase0_1=127.0.0.1-c44e0d70-e887-412c-829e-0bf6c4011126; session_id_admin=127.0.0.1-c7c58ab9-3073-4339-925f-2c8b76768e83</div></td></tr><tr><td style="font-weight:bold;vertical-align:top;">http_host</td><td style="vertical-align:top;">:</td><td><div>localhost:8000</div></td></tr><tr><td style="font-weight:bold;vertical-align:top;">http_referer</td><td style="vertical-align:top;">:</td><td><div>http://localhost:8000/Showcase0_1/default/createProject</div></td></tr><tr><td style="font-weight:bold;vertical-align:top;">http_upgrade_insecure_requests</td><td style="vertical-align:top;">:</td><td><div>1</div></td></tr><tr><td style="font-weight:bold;vertical-align:top;">http_user_agent</td><td style="vertical-align:top;">:</td><td><div>Mozilla/5.0 (Windows NT 10.0; Win64; x64) AppleWebKit/537.36 (KHTML, like Gecko) Chrome/56.0.2924.87 Safari/537.36</div></td></tr><tr><td style="font-weight:bold;vertical-align:top;">is_jython</td><td style="vertical-align:top;">:</td><td><div>False</div></td></tr><tr><td style="font-weight:bold;vertical-align:top;">is_pypy</td><td style="vertical-align:top;">:</td><td><div>False</div></td></tr><tr><td style="font-weight:bold;vertical-align:top;">is_source</td><td style="vertical-align:top;">:</td><td><div>False</div></td></tr><tr><td style="font-weight:bold;vertical-align:top;">local_hosts</td><td style="vertical-align:top;">:</td><td><div><table><tr><td><div>DESKTOP-QSSV5U6.ucsc.edu</div></td></tr><tr><td><div>fe80::200:5efe:169.233.197.230%18</div></td></tr><tr><td><div>fe80::4967:ff0d:c739:a83a%8</div></td></tr><tr><td><div>::ffff:127.0.0.1</div></td></tr><tr><td><div>::1</div></td></tr><tr><td><div>DESKTOP-QSSV5U6</div></td></tr><tr><td><div>169.233.197.230</div></td></tr><tr><td><div>127.0.0.1</div></td></tr></table></div></td></tr><tr><td style="font-weight:bold;vertical-align:top;">path_info</td><td style="vertical-align:top;">:</td><td><div>/Showcase0_1/default/profile</div></td></tr><tr><td style="font-weight:bold;vertical-align:top;">query_string</td><td style="vertical-align:top;">:</td><td><div></div></td></tr><tr><td style="font-weight:bold;vertical-align:top;">remote_addr</td><td style="vertical-align:top;">:</td><td><div>127.0.0.1</div></td></tr><tr><td style="font-weight:bold;vertical-align:top;">remote_port</td><td style="vertical-align:top;">:</td><td><div>56406</div></td></tr><tr><td style="font-weight:bold;vertical-align:top;">request_method</td><td style="vertical-align:top;">:</td><td><div>GET</div></td></tr><tr><td style="font-weight:bold;vertical-align:top;">request_uri</td><td style="vertical-align:top;">:</td><td><div>/Showcase0_1/default/profile</div></td></tr><tr><td style="font-weight:bold;vertical-align:top;">script_name</td><td style="vertical-align:top;">:</td><td><div></div></td></tr><tr><td style="font-weight:bold;vertical-align:top;">server_name</td><td style="vertical-align:top;">:</td><td><div>DESKTOP-QSSV5U6</div></td></tr><tr><td style="font-weight:bold;vertical-align:top;">server_port</td><td style="vertical-align:top;">:</td><td><div>8000</div></td></tr><tr><td style="font-weight:bold;vertical-align:top;">server_protocol</td><td style="vertical-align:top;">:</td><td><div>HTTP/1.1</div></td></tr><tr><td style="font-weight:bold;vertical-align:top;">server_software</td><td style="vertical-align:top;">:</td><td><div>Rocket 1.2.6</div></td></tr><tr><td style="font-weight:bold;vertical-align:top;">web2py_path</td><td style="vertical-align:top;">:</td><td><div>C:\\cygwin64\\home\\eronj\\Showcase</div></td></tr><tr><td style="font-weight:bold;vertical-align:top;">web2py_version</td><td style="vertical-align:top;">:</td><td><div>2.14.6-stable+timestamp.2016.05.10.00.21.47</div></td></tr><tr><td style="font-weight:bold;vertical-align:top;">wsgi.errors</td><td style="vertical-align:top;">:</td><td><div>&lt;open file &#x27;&lt;stderr&gt;&#x27;, mode &#x27;w&#x27; at 0x0223D0D0&gt;</div></td></tr><tr><td style="font-weight:bold;vertical-align:top;">wsgi.file_wrapper</td><td style="vertical-align:top;">:</td><td><div>&lt;class wsgiref.util.FileWrapper at 0x026792D0&gt;</div></td></tr><tr><td style="font-weight:bold;vertical-align:top;">wsgi.input</td><td style="vertical-align:top;">:</td><td><div>&lt;socket._fileobject object at 0x09EC14B0&gt;</div></td></tr><tr><td style="font-weight:bold;vertical-align:top;">wsgi.multiprocess</td><td style="vertical-align:top;">:</td><td><div>False</div></td></tr><tr><td style="font-weight:bold;vertical-align:top;">wsgi.multithread</td><td style="vertical-align:top;">:</td><td><div>True</div></td></tr><tr><td style="font-weight:bold;vertical-align:top;">wsgi.run_once</td><td style="vertical-align:top;">:</td><td><div>False</div></td></tr><tr><td style="font-weight:bold;vertical-align:top;">wsgi.url_scheme</td><td style="vertical-align:top;">:</td><td><div>http</div></td></tr><tr><td style="font-weight:bold;vertical-align:top;">wsgi.version</td><td style="vertical-align:top;">:</td><td><div><table><tr><td><div>1</div></td></tr><tr><td><div>0</div></td></tr></table></div></td></tr><tr><td style="font-weight:bold;vertical-align:top;">wsgi_errors</td><td style="vertical-align:top;">:</td><td><div>&lt;open file &#x27;&lt;stderr&gt;&#x27;, mode &#x27;w&#x27; at 0x0223D0D0&gt;</div></td></tr><tr><td style="font-weight:bold;vertical-align:top;">wsgi_file_wrapper</td><td style="vertical-align:top;">:</td><td><div>&lt;class wsgiref.util.FileWrapper at 0x026792D0&gt;</div></td></tr><tr><td style="font-weight:bold;vertical-align:top;">wsgi_input</td><td style="vertical-align:top;">:</td><td><div>&lt;socket._fileobject object at 0x09EC14B0&gt;</div></td></tr><tr><td style="font-weight:bold;vertical-align:top;">wsgi_multiprocess</td><td style="vertical-align:top;">:</td><td><div>False</div></td></tr><tr><td style="font-weight:bold;vertical-align:top;">wsgi_multithread</td><td style="vertical-align:top;">:</td><td><div>True</div></td></tr><tr><td style="font-weight:bold;vertical-align:top;">wsgi_run_once</td><td style="vertical-align:top;">:</td><td><div>False</div></td></tr><tr><td style="font-weight:bold;vertical-align:top;">wsgi_url_scheme</td><td style="vertical-align:top;">:</td><td><div>http</div></td></tr><tr><td style="font-weight:bold;vertical-align:top;">wsgi_version</td><td style="vertical-align:top;">:</td><td><div><table><tr><td><div>1</div></td></tr><tr><td><div>0</div></td></tr></table></div></td></tr></table></div></td></tr><tr><td style="font-weight:bold;vertical-align:top;">extension</td><td style="vertical-align:top;">:</td><td><div>html</div></td></tr><tr><td style="font-weight:bold;vertical-align:top;">folder</td><td style="vertical-align:top;">:</td><td><div>C:\\cygwin64\\home\\eronj\\Showcase\\applications\\Showcase0_1\\</div></td></tr><tr><td style="font-weight:bold;vertical-align:top;">function</td><td style="vertical-align:top;">:</td><td><div>profile</div></td></tr><tr><td style="font-weight:bold;vertical-align:top;">global_settings</td><td style="vertical-align:top;">:</td><td><div><table><tr><td style="font-weight:bold;vertical-align:top;">app_folders</td><td style="vertical-align:top;">:</td><td><div>set([&#x27;C:\\\\cygwin64\\\\home\\\\eronj\\\\Showcase\\\\applications\\\\Showcase0_1\\\\&#x27;, &#x27;C:\\\\cygwin64\\\\home\\\\eronj\\\\Showcase\\\\applications\\\\admin\\\\&#x27;])</div></td></tr><tr><td style="font-weight:bold;vertical-align:top;">applications_parent</td><td style="vertical-align:top;">:</td><td><div>C:\\cygwin64\\home\\eronj\\Showcase</div></td></tr><tr><td style="font-weight:bold;vertical-align:top;">cmd_args</td><td style="vertical-align:top;">:</td><td><div><table></table></div></td></tr><tr><td style="font-weight:bold;vertical-align:top;">cmd_options</td><td style="vertical-align:top;">:</td><td><div>&lt;Values at 0x2e491e8: {&#x27;verbose&#x27;: False, &#x27;ip&#x27;: &#x27;127.0.0.1&#x27;, &#x27;debuglevel&#x27;: 30, &#x27;with_scheduler&#x27;: False, &#x27;shutdown_timeout&#x27;: 5, &#x27;taskbar&#x27;: False, &#x27;with_coverage&#x27;: False, &#x27;pid_filename&#x27;: &#x27;httpserver.pid&#x27;, &#x27;maxthreads&#x27;: None, &#x27;softcron&#x27;: False, &#x27;server_name&#x27;: &#x27;DESKTOP-QSSV5U6&#x27;, &#x27;bpython&#x27;: False, &#x27;nogui&#x27;: False, &#x27;port&#x27;: 8000, &#x27;print_errors&#x27;: False, &#x27;extcron&#x27;: False, &#x27;runcron&#x27;: False, &#x27;run_system_tests&#x27;: False, &#x27;test&#x27;: None, &#x27;folder&#x27;: &#x27;C:\\\\cygwin64\\\\home\\\\eronj\\\\Showcase&#x27;, &#x27;config&#x27;: &#x27;&#x27;, &#x27;minthreads&#x27;: None, &#x27;shell&#x27;: None, &#x27;run&#x27;: &#x27;&#x27;, &#x27;log_filename&#x27;: &#x27;httpserver.log&#x27;, &#x27;profiler_dir&#x27;: None, &#x27;args&#x27;: [&#x27;&#x27;], &#x27;socket_timeout&#x27;: 5, &#x27;ssl_ca_certificate&#x27;: None, &#x27;scheduler&#x27;: None, &#x27;interfaces&#x27;: None, &#x27;ssl_private_key&#x27;: &#x27;&#x27;, &#x27;gae&#x27;: None, &#x27;password&#x27;: &#x27;******&#x27;, &#x27;request_queue_size&#x27;: 5, &#x27;ssl_certificate&#x27;: &#x27;&#x27;, &#x27;cronjob&#x27;: False, &#x27;numthreads&#x27;: None, &#x27;quiet&#x27;: False, &#x27;import_models&#x27;: False, &#x27;timeout&#x27;: 10, &#x27;plain&#x27;: False, &#x27;nobanner&#x27;: False}&gt;</div></td></tr><tr><td style="font-weight:bold;vertical-align:top;">db_sessions</td><td style="vertical-align:top;">:</td><td><div>set([])</div></td></tr><tr><td style="font-weight:bold;vertical-align:top;">debugging</td><td style="vertical-align:top;">:</td><td><div>True</div></td></tr><tr><td style="font-weight:bold;vertical-align:top;">gluon_parent</td><td style="vertical-align:top;">:</td><td><div>C:\\cygwin64\\home\\eronj\\Showcase</div></td></tr><tr><td style="font-weight:bold;vertical-align:top;">is_jython</td><td style="vertical-align:top;">:</td><td><div>False</div></td></tr><tr><td style="font-weight:bold;vertical-align:top;">is_pypy</td><td style="vertical-align:top;">:</td><td><div>False</div></td></tr><tr><td style="font-weight:bold;vertical-align:top;">is_source</td><td style="vertical-align:top;">:</td><td><div>False</div></td></tr><tr><td style="font-weight:bold;vertical-align:top;">local_hosts</td><td style="vertical-align:top;">:</td><td><div><table><tr><td><div>DESKTOP-QSSV5U6.ucsc.edu</div></td></tr><tr><td><div>fe80::200:5efe:169.233.197.230%18</div></td></tr><tr><td><div>fe80::4967:ff0d:c739:a83a%8</div></td></tr><tr><td><div>::ffff:127.0.0.1</div></td></tr><tr><td><div>::1</div></td></tr><tr><td><div>DESKTOP-QSSV5U6</div></td></tr><tr><td><div>169.233.197.230</div></td></tr><tr><td><div>127.0.0.1</div></td></tr></table></div></td></tr><tr><td style="font-weight:bold;vertical-align:top;">web2py_version</td><td style="vertical-align:top;">:</td><td><div>2.14.6-stable+timestamp.2016.05.10.00.21.47</div></td></tr></table></div></td></tr><tr><td style="font-weight:bold;vertical-align:top;">is_https</td><td style="vertical-align:top;">:</td><td><div>False</div></td></tr><tr><td style="font-weight:bold;vertical-align:top;">is_local</td><td style="vertical-align:top;">:</td><td><div>True</div></td></tr><tr><td style="font-weight:bold;vertical-align:top;">is_restful</td><td style="vertical-align:top;">:</td><td><div>False</div></td></tr><tr><td style="font-weight:bold;vertical-align:top;">is_scheduler</td><td style="vertical-align:top;">:</td><td><div>False</div></td></tr><tr><td style="font-weight:bold;vertical-align:top;">is_shell</td><td style="vertical-align:top;">:</td><td><div>False</div></td></tr><tr><td style="font-weight:bold;vertical-align:top;">now</td><td style="vertical-align:top;">:</td><td><div>datetime.datetime(2017, 3, 17, 18, 44, 17, 882000)</div></td></tr><tr><td style="font-weight:bold;vertical-align:top;">raw_args</td><td style="vertical-align:top;">:</td><td><div></div></td></tr><tr><td style="font-weight:bold;vertical-align:top;">raw_extension</td><td style="vertical-align:top;">:</td><td><div>None</div></td></tr><tr><td style="font-weight:bold;vertical-align:top;">url</td><td style="vertical-align:top;">:</td><td><div>/Showcase0_1/default/profile</div></td></tr><tr><td style="font-weight:bold;vertical-align:top;">utcnow</td><td style="vertical-align:top;">:</td><td><div>datetime.datetime(2017, 3, 17, 17, 44, 17, 882000)</div></td></tr><tr><td style="font-weight:bold;vertical-align:top;">wsgi</td><td style="vertical-align:top;">:</td><td><div>&lt;gluon.main.LazyWSGI object at 0x06633F70&gt;</div></td></tr></table></div>'
tRp64
sS'frames'
p65
(lp66
(dp67
S'file'
p68
S'C:\\cygwin64\\home\\eronj\\Showcase\\gluon\\restricted.py'
p69
sS'dump'
p70
(dp71
S'environment'
p72
S"{'A': <class 'gluon.html.A'>, 'ANY_OF': <class 'gluon.validators.ANY_OF'>, 'ASSIGNJS': <function ASSIGNJS>, 'Auth': <class 'gluon.tools.Auth'>, 'B': <class 'gluon.html.B'>, 'BEAUTIFY': <class 'gluon.html.BEAUTIFY'>, 'BODY': <class 'gluon.html.BODY'>, 'BR': <class 'gluon.html.BR'>, 'BUTTON': <class 'gluon.html.BUTTON'>, 'CAT': <class 'gluon.html.CAT'>, ...}"
p73
sS'ccode'
p74
S'<code object <module> at 064BF410, file "C:\\cygw...e\\applications\\Showcase0_1\\models\\db.py", line 2>'
p75
ssS'lnum'
p76
I227
sS'lines'
p77
(dp78
I224
S'            ccode = code'
p79
sI225
S'        else:'
p80
sI226
S'            ccode = compile2(code, layer)'
p81
sI227
S'        exec ccode in environment'
p82
sI228
S'    except HTTP:'
p83
sI229
S'        raise'
p84
sI230
S'    except RestrictedError:'
p85
sI231
S'        # do not encapsulate (obfuscate) the original RestrictedError'
p86
sI222
S'    try:'
p87
sI223
S'        if isinstance(code, types.CodeType):'
p88
ssS'call'
p89
S"(code='#OMG THIS IS A COMMMENT\\nimport datetime\\n\\ndb = DA...adable = db.document.created_on.writable = False\\n', environment={'A': <class 'gluon.html.A'>, 'ANY_OF': <class 'gluon.validators.ANY_OF'>, 'ASSIGNJS': <function ASSIGNJS>, 'Auth': <class 'gluon.tools.Auth'>, 'B': <class 'gluon.html.B'>, 'BEAUTIFY': <class 'gluon.html.BEAUTIFY'>, 'BODY': <class 'gluon.html.BODY'>, 'BR': <class 'gluon.html.BR'>, 'BUTTON': <class 'gluon.html.BUTTON'>, 'CAT': <class 'gluon.html.CAT'>, ...}, layer=r'C:\\cygwin64\\home\\eronj\\Showcase\\applications\\Showcase0_1\\models\\db.py')"
p90
sS'func'
p91
S'restricted'
p92
sa(dp93
g68
S'C:\\cygwin64\\home\\eronj\\Showcase\\applications\\Showcase0_1\\models\\db.py'
p94
sg70
(dp95
S'default'
p96
S'undefined'
p97
sS'Field'
p98
S"<class 'pydal.objects.Field'>"
p99
sS'auth'
p100
S'<gluon.tools.Auth object>'
p101
sS'auth.user_id'
p102
S'5L'
p103
ssg76
I47
sg77
(dp104
I42
S'#db for posts on each project'
p105
sI43
S"db.define_table('post',"
p106
sI44
S"                Field('document_id', 'reference document'),"
p107
sI45
S"                Field('body', 'text'),"
p108
sI46
S"                Field('created_on', 'datetime', default=request.now),"
p109
sI47
S"                Field('created_by', 'reference auth_user', default=auth.user_id))"
p110
sI48
S''
sI49
S''
sI50
S"db.define_table('collaborators',"
p111
sI51
S"                Field('project_id', 'reference project'),"
p112
ssg89
S'()'
p113
sg91
S'<module>'
p114
sa(dp115
g68
S'C:\\cygwin64\\home\\eronj\\Showcase\\gluon\\packages\\dal\\pydal\\base.py'
p116
sg70
(dp117
S'fields'
p118
S'(<pydal.objects.Field object>, <pydal.objects.Field object>, <pydal.objects.Field object>, <pydal.objects.Field object>)'
p119
sS'self'
p120
S'<DAL uri="sqlite://storage.sqlite">'
p121
sS'args'
p122
g19
sS'tablename'
p123
S"'post'"
p124
sS'table'
p125
g97
sS'self.lazy_define_table'
p126
S'<bound method DAL.lazy_define_table of <DAL uri="sqlite://storage.sqlite">>'
p127
ssg76
I834
sg77
(dp128
I832
S'            table = None'
p129
sI833
S'        else:'
p130
sI834
S'            table = self.lazy_define_table(tablename,*fields,**args)'
p131
sI835
S'        if not tablename in self.tables:'
p132
sI836
S'            self.tables.append(tablename)'
p133
sI837
S'        return table'
p134
sI838
S''
sI829
S'                    % (tablename,invalid_args))'
p135
sI830
S'        if self._lazy_tables and tablename not in self._LAZY_TABLES:'
p136
sI831
S'            self._LAZY_TABLES[tablename] = (tablename,fields,args)'
p137
ssg89
S'(self=<DAL uri="sqlite://storage.sqlite">, tablename=\'post\', *fields=(<pydal.objects.Field object>, <pydal.objects.Field object>, <pydal.objects.Field object>, <pydal.objects.Field object>), **args={})'
p138
sg91
S'define_table'
p139
sa(dp140
g68
S'C:\\cygwin64\\home\\eronj\\Showcase\\gluon\\packages\\dal\\pydal\\base.py'
p141
sg70
(dp142
S'polymodel'
p143
S'None'
p144
ssg76
I873
sg77
(dp145
I868
S'            try:'
p146
sI869
S'                GLOBAL_LOCKER.acquire()'
p147
sI870
S'                self._lastsql = self._adapter.create_table('
p148
sI871
S'                    table,migrate=migrate,'
p149
sI872
S'                    fake_migrate=fake_migrate,'
p150
sI873
S'                    polymodel=polymodel)'
p151
sI874
S'            finally:'
p152
sI875
S'                GLOBAL_LOCKER.release()'
p153
sI876
S'        else:'
p154
sI877
S'            table._dbt = None'
p155
ssg89
S'(self=<DAL uri="sqlite://storage.sqlite">, tablename=\'post\', *fields=(<pydal.objects.Field object>, <pydal.objects.Field object>, <pydal.objects.Field object>, <pydal.objects.Field object>), **args={})'
p156
sg91
S'lazy_define_table'
p157
sa(dp158
g68
S'C:\\cygwin64\\home\\eronj\\Showcase\\gluon\\packages\\dal\\pydal\\adapters\\base.py'
p159
sg70
(dp160
S'fake_migrate'
p161
S'False'
p162
ssg76
I510
sg77
(dp163
I512
S'        return query'
p164
sI513
S''
sI514
S'    def migrate_table('
p165
sI505
S'            if sql_fields != sql_fields_old:'
p166
sI506
S'                self.migrate_table('
p167
sI507
S'                    table,'
p168
sI508
S'                    sql_fields, sql_fields_old,'
p169
sI509
S'                    sql_fields_aux, None,'
p170
sI510
S'                    fake_migrate=fake_migrate'
p171
sI511
S'                    )'
p172
ssg89
S'(self=<pydal.adapters.sqlite.SQLiteAdapter object>, table=<Table post (id, document_id, body, created_on, created_by)>, migrate=True, fake_migrate=False, polymodel=None)'
p173
sg91
S'create_table'
p174
sa(dp175
g68
S'C:\\cygwin64\\home\\eronj\\Showcase\\gluon\\packages\\dal\\pydal\\adapters\\base.py'
p176
sg70
(dp177
S'self.save_dbt'
p178
S'<bound method SQLiteAdapter.save_dbt of <pydal.adapters.sqlite.SQLiteAdapter object>>'
p179
sS'self'
p180
S'<pydal.adapters.sqlite.SQLiteAdapter object>'
p181
sS'sql_fields_current'
p182
S"{'body': {'length': 32768, 'notnull': False, 'sortable': 3, 'sql': 'TEXT', 'type': 'text', 'unique': False}, 'created_by': {'length': 512, 'notnull': False, 'sortable': 5, 'sql': 'INTEGER REFERENCES auth_user (id) ON DELETE CASCADE  ', 'type': 'reference auth_user', 'unique': False}, 'created_on': {'length': 512, 'notnull': False, 'sortable': 4, 'sql': 'TIMESTAMP', 'type': 'datetime', 'unique': False}, 'document_id': {'length': 512, 'notnull': False, 'sortable': 2, 'sql': 'INTEGER REFERENCES document (id) ON DELETE CASCADE  ', 'type': 'reference document', 'unique': False}, 'id': {'length': 512, 'notnull': False, 'sortable': 1, 'sql': 'INTEGER PRIMARY KEY AUTOINCREMENT', 'type': 'id', 'unique': False}, 'project_id': {'length': 512L, 'notnull': 0L, 'sortable': 2L, 'sql': 'INTEGER REFERENCES project (id) ON DELETE CASCADE  ', 'type': 'reference project', 'unique': 0L}}"
p183
sS'table'
p184
S'<Table post (id, document_id, body, created_on, created_by)>'
p185
ssg76
I639
sg77
(dp186
I640
S"            self.log('success!\\n', table)"
p187
sI641
S''
sI642
S'    def save_dbt(self,table, sql_fields_current):'
p188
sI643
S"        tfile = self.file_open(table._dbt, 'wb')"
p189
sI634
S'            elif metadata_change:'
p190
sI635
S'                self.save_dbt(table,sql_fields_current)'
p191
sI636
S''
sI637
S'        if metadata_change and not (query and db._adapter.commit_on_alter_table):'
p192
sI638
S'            db.commit()'
p193
sI639
S'            self.save_dbt(table,sql_fields_current)'
p194
ssg89
S"(self=<pydal.adapters.sqlite.SQLiteAdapter object>, table=<Table post (id, document_id, body, created_on, created_by)>, sql_fields={'body': {'length': 32768, 'notnull': False, 'sortable': 3, 'sql': 'TEXT', 'type': 'text', 'unique': False}, 'created_by': {'length': 512, 'notnull': False, 'sortable': 5, 'sql': 'INTEGER REFERENCES auth_user (id) ON DELETE CASCADE  ', 'type': 'reference auth_user', 'unique': False}, 'created_on': {'length': 512, 'notnull': False, 'sortable': 4, 'sql': 'TIMESTAMP', 'type': 'datetime', 'unique': False}, 'document_id': {'length': 512, 'notnull': False, 'sortable': 2, 'sql': 'INTEGER REFERENCES document (id) ON DELETE CASCADE  ', 'type': 'reference document', 'unique': False}, 'id': {'length': 512, 'notnull': False, 'sortable': 1, 'sql': 'INTEGER PRIMARY KEY AUTOINCREMENT', 'type': 'id', 'unique': False}}, sql_fields_old={'body': {'length': 32768, 'notnull': False, 'sortable': 3, 'sql': 'TEXT', 'type': 'text', 'unique': False}, 'created_by': {'length': 512, 'notnull': False, 'sortable': 5, 'sql': 'INTEGER REFERENCES auth_user (id) ON DELETE CASCADE  ', 'type': 'reference auth_user', 'unique': False}, 'created_on': {'length': 512, 'notnull': False, 'sortable': 4, 'sql': 'TIMESTAMP', 'type': 'datetime', 'unique': False}, 'document_id': {'length': 512, 'notnull': False, 'sortable': 2, 'sql': 'INTEGER REFERENCES document (id) ON DELETE CASCADE  ', 'type': 'reference document', 'unique': False}, 'id': {'length': 512, 'notnull': False, 'sortable': 1, 'sql': 'INTEGER PRIMARY KEY AUTOINCREMENT', 'type': 'id', 'unique': False}, 'project_id': {'length': 512L, 'notnull': 0L, 'sortable': 2L, 'sql': 'INTEGER REFERENCES project (id) ON DELETE CASCADE  ', 'type': 'reference project', 'unique': 0L}}, sql_fields_aux={'body': {'sql': 'TEXT'}, 'created_by': {'sql': 'INTEGER REFERENCES auth_user (id) ON DELETE CASCADE  '}, 'created_on': {'sql': 'TIMESTAMP'}, 'document_id': {'sql': 'INTEGER REFERENCES document (id) ON DELETE CASCADE  '}, 'id': {'sql': 'INTEGER PRIMARY KEY AUTOINCREMENT'}}, logfile=None, fake_migrate=False)"
p195
sg91
S'migrate_table'
p196
sa(dp197
g68
S'C:\\cygwin64\\home\\eronj\\Showcase\\gluon\\packages\\dal\\pydal\\adapters\\base.py'
p198
sg70
(dp199
S'table'
p200
S'<Table post (id, document_id, body, created_on, created_by)>'
p201
sS'self'
p202
S'<pydal.adapters.sqlite.SQLiteAdapter object>'
p203
sS'tfile'
p204
g97
sS'table._dbt'
p205
S"r'C:\\cygwin64\\home\\eronj\\Showcase\\applications\\Sho...bases\\c8b669d15150d7109e5f7ab36744a5b7_post.table'"
p206
sS'self.file_open'
p207
S'<bound method SQLiteAdapter.file_open of <pydal.adapters.sqlite.SQLiteAdapter object>>'
p208
ssg76
I643
sg77
(dp209
I640
S"            self.log('success!\\n', table)"
p210
sI641
S''
sI642
S'    def save_dbt(self,table, sql_fields_current):'
p211
sI643
S"        tfile = self.file_open(table._dbt, 'wb')"
p212
sI644
S'        pickle.dump(sql_fields_current, tfile)'
p213
sI645
S'        self.file_close(tfile)'
p214
sI646
S''
sI647
S'    def LOWER(self, first):'
p215
sI638
S'            db.commit()'
p216
sI639
S'            self.save_dbt(table,sql_fields_current)'
p217
ssg89
S"(self=<pydal.adapters.sqlite.SQLiteAdapter object>, table=<Table post (id, document_id, body, created_on, created_by)>, sql_fields_current={'body': {'length': 32768, 'notnull': False, 'sortable': 3, 'sql': 'TEXT', 'type': 'text', 'unique': False}, 'created_by': {'length': 512, 'notnull': False, 'sortable': 5, 'sql': 'INTEGER REFERENCES auth_user (id) ON DELETE CASCADE  ', 'type': 'reference auth_user', 'unique': False}, 'created_on': {'length': 512, 'notnull': False, 'sortable': 4, 'sql': 'TIMESTAMP', 'type': 'datetime', 'unique': False}, 'document_id': {'length': 512, 'notnull': False, 'sortable': 2, 'sql': 'INTEGER REFERENCES document (id) ON DELETE CASCADE  ', 'type': 'reference document', 'unique': False}, 'id': {'length': 512, 'notnull': False, 'sortable': 1, 'sql': 'INTEGER PRIMARY KEY AUTOINCREMENT', 'type': 'id', 'unique': False}, 'project_id': {'length': 512L, 'notnull': 0L, 'sortable': 2L, 'sql': 'INTEGER REFERENCES project (id) ON DELETE CASCADE  ', 'type': 'reference project', 'unique': 0L}})"
p218
sg91
S'save_dbt'
p219
sa(dp220
g68
S'C:\\cygwin64\\home\\eronj\\Showcase\\gluon\\packages\\dal\\pydal\\adapters\\base.py'
p221
sg70
(dp222
S'mode'
p223
S"'wb'"
p224
sS'portalocker.LockedFile'
p225
S"<class 'pydal.contrib.portalocker.LockedFile'>"
p226
sS'global portalocker'
p227
S"<module 'pydal.contrib.portalocker' from 'C:\\cyg...gluon\\packages\\dal\\pydal\\contrib\\portalocker.py'>"
p228
sS'fileobj'
p229
g97
sS'filename'
p230
S"r'C:\\cygwin64\\home\\eronj\\Showcase\\applications\\Sho...bases\\c8b669d15150d7109e5f7ab36744a5b7_post.table'"
p231
ssg76
I155
sg77
(dp232
I150
S'        return exists(filename)'
p233
sI151
S''
sI152
S"    def file_open(self, filename, mode='rb', lock=True):"
p234
sI153
S'        #to be used ONLY for files that on GAE may not be on filesystem'
p235
sI154
S'        if lock:'
p236
sI155
S'            fileobj = portalocker.LockedFile(filename,mode)'
p237
sI156
S'        else:'
p238
sI157
S'            fileobj = open(filename,mode)'
p239
sI158
S'        return fileobj'
p240
sI159
S''
ssg89
S"(self=<pydal.adapters.sqlite.SQLiteAdapter object>, filename=r'C:\\cygwin64\\home\\eronj\\Showcase\\applications\\Sho...bases\\c8b669d15150d7109e5f7ab36744a5b7_post.table', mode='wb', lock=True)"
p241
sg91
S'file_open'
p242
sa(dp243
g68
S'C:\\cygwin64\\home\\eronj\\Showcase\\gluon\\packages\\dal\\pydal\\contrib\\portalocker.py'
p244
sg70
(dp245
S'self.file.truncate'
p246
S'<built-in method truncate of file object>'
p247
sS'self'
p248
S'<pydal.contrib.portalocker.LockedFile object>'
p249
sS'self.file'
p250
S"<open file 'C:\\\\cygwin64\\\\home\\\\eronj\\\\Showcase\\...15150d7109e5f7ab36744a5b7_post.table', mode 'ab'>"
p251
ssg76
I122
sg77
(dp252
I117
S"        elif 'w' in mode or 'a' in mode:"
p253
sI118
S"            self.file = open(filename, mode.replace('w', 'a'))"
p254
sI119
S'            lock(self.file, LOCK_EX)'
p255
sI120
S"            if not 'a' in mode:"
p256
sI121
S'                self.file.seek(0)'
p257
sI122
S'                self.file.truncate(0)'
p258
sI123
S'        else:'
p259
sI124
S'            raise RuntimeError("invalid LockedFile(...,mode)")'
p260
sI125
S''
sI126
S'    def read(self, size=None):'
p261
ssg89
S"(self=<pydal.contrib.portalocker.LockedFile object>, filename=r'C:\\cygwin64\\home\\eronj\\Showcase\\applications\\Sho...bases\\c8b669d15150d7109e5f7ab36744a5b7_post.table', mode='wb')"
p262
sg91
g22
sasS'pyver'
p263
S'Python 2.7.9: C:\\cygwin64\\home\\eronj\\Showcase\\web2py.exe (prefix: C:\\Python27)'
p264
sS'session'
p265
g63
(S's\xe4\x08\x00\x00<div><table><tr><td style="font-weight:bold;vertical-align:top;">auth</td><td style="vertical-align:top;">:</td><td><div><table><tr><td style="font-weight:bold;vertical-align:top;">expiration</td><td style="vertical-align:top;">:</td><td><div>3600</div></td></tr><tr><td style="font-weight:bold;vertical-align:top;">hmac_key</td><td style="vertical-align:top;">:</td><td><div>81c7502b-1f9d-4137-86c3-acc68c0f8554</div></td></tr><tr><td style="font-weight:bold;vertical-align:top;">last_visit</td><td style="vertical-align:top;">:</td><td><div>datetime.datetime(2017, 3, 17, 18, 39, 12, 888000)</div></td></tr><tr><td style="font-weight:bold;vertical-align:top;">remember_me</td><td style="vertical-align:top;">:</td><td><div>False</div></td></tr><tr><td style="font-weight:bold;vertical-align:top;">user</td><td style="vertical-align:top;">:</td><td><div><table><tr><td style="font-weight:bold;vertical-align:top;">email</td><td style="vertical-align:top;">:</td><td><div>ejlake@ucsc.edu</div></td></tr><tr><td style="font-weight:bold;vertical-align:top;">first_name</td><td style="vertical-align:top;">:</td><td><div>Eron</div></td></tr><tr><td style="font-weight:bold;vertical-align:top;">id</td><td style="vertical-align:top;">:</td><td><div>5L</div></td></tr><tr><td style="font-weight:bold;vertical-align:top;">last_name</td><td style="vertical-align:top;">:</td><td><div>Lake</div></td></tr><tr><td style="font-weight:bold;vertical-align:top;">registration_id</td><td style="vertical-align:top;">:</td><td><div></div></td></tr><tr><td style="font-weight:bold;vertical-align:top;">registration_key</td><td style="vertical-align:top;">:</td><td><div></div></td></tr><tr><td style="font-weight:bold;vertical-align:top;">reset_password_key</td><td style="vertical-align:top;">:</td><td><div></div></td></tr></table></div></td></tr><tr><td style="font-weight:bold;vertical-align:top;">user_groups</td><td style="vertical-align:top;">:</td><td><div><table><tr><td style="font-weight:bold;vertical-align:top;">5</td><td style="vertical-align:top;">:</td><td><div>user_5</div></td></tr></table></div></td></tr></table></div></td></tr><tr><td style="font-weight:bold;vertical-align:top;">flash</td><td style="vertical-align:top;">:</td><td><div>None</div></td></tr></table></div>'
tRp266
sS'etype'
p267
S"<type 'exceptions.IOError'>"
p268
sS'date'
p269
S'Fri Mar 17 18:44:17 2017'
p270
sS'response'
p271
g63
(S's\x95\x17\x00\x00<div><table><tr><td style="font-weight:bold;vertical-align:top;">body</td><td style="vertical-align:top;">:</td><td><div>&lt;cStringIO.StringO object at 0x06A74240&gt;</div></td></tr><tr><td style="font-weight:bold;vertical-align:top;">cookies</td><td style="vertical-align:top;">:</td><td><div><table><tr><td style="font-weight:bold;vertical-align:top;">session_id_showcase0_1</td><td style="vertical-align:top;">:</td><td><div>127.0.0.1-c44e0d70-e887-412c-829e-0bf6c4011126<table><tr><td style="font-weight:bold;vertical-align:top;">comment</td><td style="vertical-align:top;">:</td><td><div></div></td></tr><tr><td style="font-weight:bold;vertical-align:top;">domain</td><td style="vertical-align:top;">:</td><td><div></div></td></tr><tr><td style="font-weight:bold;vertical-align:top;">expires</td><td style="vertical-align:top;">:</td><td><div></div></td></tr><tr><td style="font-weight:bold;vertical-align:top;">httponly</td><td style="vertical-align:top;">:</td><td><div></div></td></tr><tr><td style="font-weight:bold;vertical-align:top;">max-age</td><td style="vertical-align:top;">:</td><td><div></div></td></tr><tr><td style="font-weight:bold;vertical-align:top;">path</td><td style="vertical-align:top;">:</td><td><div>/</div></td></tr><tr><td style="font-weight:bold;vertical-align:top;">secure</td><td style="vertical-align:top;">:</td><td><div></div></td></tr><tr><td style="font-weight:bold;vertical-align:top;">version</td><td style="vertical-align:top;">:</td><td><div></div></td></tr></table></div></td></tr></table></div></td></tr><tr><td style="font-weight:bold;vertical-align:top;">delimiters</td><td style="vertical-align:top;">:</td><td><div><table><tr><td><div>{{</div></td></tr><tr><td><div>}}</div></td></tr></table></div></td></tr><tr><td style="font-weight:bold;vertical-align:top;">files</td><td style="vertical-align:top;">:</td><td><div><table></table></div></td></tr><tr><td style="font-weight:bold;vertical-align:top;">flash</td><td style="vertical-align:top;">:</td><td><div></div></td></tr><tr><td style="font-weight:bold;vertical-align:top;">form_label_separator</td><td style="vertical-align:top;">:</td><td><div>: </div></td></tr><tr><td style="font-weight:bold;vertical-align:top;">formstyle</td><td style="vertical-align:top;">:</td><td><div>table3cols</div></td></tr><tr><td style="font-weight:bold;vertical-align:top;">generic_patterns</td><td style="vertical-align:top;">:</td><td><div><table><tr><td><div>*</div></td></tr></table></div></td></tr><tr><td style="font-weight:bold;vertical-align:top;">headers</td><td style="vertical-align:top;">:</td><td><div><table><tr><td style="font-weight:bold;vertical-align:top;">X-Powered-By</td><td style="vertical-align:top;">:</td><td><div>web2py</div></td></tr></table></div></td></tr><tr><td style="font-weight:bold;vertical-align:top;">menu</td><td style="vertical-align:top;">:</td><td><div><table></table></div></td></tr><tr><td style="font-weight:bold;vertical-align:top;">meta</td><td style="vertical-align:top;">:</td><td><div><table></table></div></td></tr><tr><td style="font-weight:bold;vertical-align:top;">models_to_run</td><td style="vertical-align:top;">:</td><td><div><table><tr><td><div>^\\w+\\.py$</div></td></tr><tr><td><div>^default/\\w+\\.py$</div></td></tr><tr><td><div>^default/profile/\\w+\\.py$</div></td></tr></table></div></td></tr><tr><td style="font-weight:bold;vertical-align:top;">postprocessing</td><td style="vertical-align:top;">:</td><td><div><table></table></div></td></tr><tr><td style="font-weight:bold;vertical-align:top;">session_client</td><td style="vertical-align:top;">:</td><td><div>127.0.0.1</div></td></tr><tr><td style="font-weight:bold;vertical-align:top;">session_cookie_compression_level</td><td style="vertical-align:top;">:</td><td><div>None</div></td></tr><tr><td style="font-weight:bold;vertical-align:top;">session_cookie_expires</td><td style="vertical-align:top;">:</td><td><div>None</div></td></tr><tr><td style="font-weight:bold;vertical-align:top;">session_data_name</td><td style="vertical-align:top;">:</td><td><div>session_data_showcase0_1</div></td></tr><tr><td style="font-weight:bold;vertical-align:top;">session_file</td><td style="vertical-align:top;">:</td><td><div>&lt;open file &#x27;C:\\\\cygwin64\\\\home\\\\eronj\\\\Showcase\\\\applications\\\\Showcase0_1\\\\sessions\\\\047\\\\1c3\\\\127.0.0.1-c44e0d70-e887-412c-829e-0bf6c4011126&#x27;, mode &#x27;rb+&#x27; at 0x06186E38&gt;</div></td></tr><tr><td style="font-weight:bold;vertical-align:top;">session_filename</td><td style="vertical-align:top;">:</td><td><div>C:\\cygwin64\\home\\eronj\\Showcase\\applications\\Showcase0_1\\sessions\\127.0.0.1-c44e0d70-e887-412c-829e-0bf6c4011126</div></td></tr><tr><td style="font-weight:bold;vertical-align:top;">session_hash</td><td style="vertical-align:top;">:</td><td><div>e1172b12ba857df6bd97251f888b7c7c</div></td></tr><tr><td style="font-weight:bold;vertical-align:top;">session_id</td><td style="vertical-align:top;">:</td><td><div>127.0.0.1-c44e0d70-e887-412c-829e-0bf6c4011126</div></td></tr><tr><td style="font-weight:bold;vertical-align:top;">session_id_name</td><td style="vertical-align:top;">:</td><td><div>session_id_showcase0_1</div></td></tr><tr><td style="font-weight:bold;vertical-align:top;">session_locked</td><td style="vertical-align:top;">:</td><td><div>True</div></td></tr><tr><td style="font-weight:bold;vertical-align:top;">session_masterapp</td><td style="vertical-align:top;">:</td><td><div>Showcase0_1</div></td></tr><tr><td style="font-weight:bold;vertical-align:top;">session_new</td><td style="vertical-align:top;">:</td><td><div>False</div></td></tr><tr><td style="font-weight:bold;vertical-align:top;">session_storage_type</td><td style="vertical-align:top;">:</td><td><div>file</div></td></tr><tr><td style="font-weight:bold;vertical-align:top;">status</td><td style="vertical-align:top;">:</td><td><div>200</div></td></tr><tr><td style="font-weight:bold;vertical-align:top;">view</td><td style="vertical-align:top;">:</td><td><div>default/profile.html</div></td></tr></table></div>'
tRp272
sS'locals'
p273
(dp274
S'self'
p275
S'<pydal.contrib.portalocker.LockedFile object>'
p276
sS'mode'
p277
S"'wb'"
p278
sg36
S"r'C:\\cygwin64\\home\\eronj\\Showcase\\applications\\Sho...bases\\c8b669d15150d7109e5f7ab36744a5b7_post.table'"
p279
sssS'traceback'
p280
S'Traceback (most recent call last):\n  File "C:\\cygwin64\\home\\eronj\\Showcase\\gluon\\restricted.py", line 227, in restricted\n    exec ccode in environment\n  File "C:\\cygwin64\\home\\eronj\\Showcase\\applications\\Showcase0_1\\models\\db.py", line 47, in <module>\n    Field(\'created_by\', \'reference auth_user\', default=auth.user_id))\n  File "C:\\cygwin64\\home\\eronj\\Showcase\\gluon\\packages\\dal\\pydal\\base.py", line 834, in define_table\n    table = self.lazy_define_table(tablename,*fields,**args)\n  File "C:\\cygwin64\\home\\eronj\\Showcase\\gluon\\packages\\dal\\pydal\\base.py", line 873, in lazy_define_table\n    polymodel=polymodel)\n  File "C:\\cygwin64\\home\\eronj\\Showcase\\gluon\\packages\\dal\\pydal\\adapters\\base.py", line 510, in create_table\n    fake_migrate=fake_migrate\n  File "C:\\cygwin64\\home\\eronj\\Showcase\\gluon\\packages\\dal\\pydal\\adapters\\base.py", line 639, in migrate_table\n    self.save_dbt(table,sql_fields_current)\n  File "C:\\cygwin64\\home\\eronj\\Showcase\\gluon\\packages\\dal\\pydal\\adapters\\base.py", line 643, in save_dbt\n    tfile = self.file_open(table._dbt, \'wb\')\n  File "C:\\cygwin64\\home\\eronj\\Showcase\\gluon\\packages\\dal\\pydal\\adapters\\base.py", line 155, in file_open\n    fileobj = portalocker.LockedFile(filename,mode)\n  File "C:\\cygwin64\\home\\eronj\\Showcase\\gluon\\packages\\dal\\pydal\\contrib\\portalocker.py", line 122, in __init__\n    self.file.truncate(0)\nIOError: [Errno 13] Permission denied\n'
p281
s.